_sass.abi3.so:PyInit__sass
_sass.abi3.so:PySass_init_module
_sass.abi3.so:PySass_make_enum_dict
_sass.abi3.so:_Z10json_checkPK8JsonNodePc
_sass.abi3.so:_Z11json_decodePKc
_sass.abi3.so:_Z11json_deleteP8JsonNode
_sass.abi3.so:_Z11json_encodePK8JsonNode
_sass.abi3.so:_Z11json_mkboolb
_sass.abi3.so:_Z11json_mknullv
_sass.abi3.so:_Z12json_mkarrayv
_sass.abi3.so:_Z13json_mknumberd
_sass.abi3.so:_Z13json_mkobjectv
_sass.abi3.so:_Z13json_mkstringPKc
_sass.abi3.so:_Z13json_validatePKc
_sass.abi3.so:_Z14json_stringifyPK8JsonNodePKc
_sass.abi3.so:_Z16json_find_memberP8JsonNodePKc
_sass.abi3.so:_Z16json_first_childPK8JsonNode
_sass.abi3.so:_Z17json_find_elementP8JsonNodei
_sass.abi3.so:_Z18json_append_memberP8JsonNodePKcS0_
_sass.abi3.so:_Z18json_encode_stringPKc
_sass.abi3.so:_Z19json_append_elementP8JsonNodeS0_
_sass.abi3.so:_Z19json_prepend_memberP8JsonNodePKcS0_
_sass.abi3.so:_Z20json_prepend_elementP8JsonNodeS0_
_sass.abi3.so:_Z23json_remove_from_parentP8JsonNode
_sass.abi3.so:_ZN4Sass10AssignmentC1ENS_10SourceSpanENSt7__cxx1112basic_stringIcSt11char_traitsIcESaIcEEENS_10SharedImplINS_10ExpressionEEEbb
_sass.abi3.so:_ZN4Sass10AssignmentC1EPKS0_
_sass.abi3.so:_ZN4Sass10AssignmentC2ENS_10SourceSpanENSt7__cxx1112basic_stringIcSt11char_traitsIcESaIcEEENS_10SharedImplINS_10ExpressionEEEbb
_sass.abi3.so:_ZN4Sass10AssignmentC2EPKS0_
_sass.abi3.so:_ZN4Sass10AtRootRule12exclude_nodeENS_10SharedImplINS_9StatementEEE
_sass.abi3.so:_ZN4Sass10AtRootRule7bubblesEv
_sass.abi3.so:_ZN4Sass10AtRootRuleC1ENS_10SourceSpanENS_10SharedImplINS_5BlockEEENS2_INS_13At_Root_QueryEEE
_sass.abi3.so:_ZN4Sass10AtRootRuleC1EPKS0_
_sass.abi3.so:_ZN4Sass10AtRootRuleC2ENS_10SourceSpanENS_10SharedImplINS_5BlockEEENS2_INS_13At_Root_QueryEEE
_sass.abi3.so:_ZN4Sass10AtRootRuleC2EPKS0_
_sass.abi3.so:_ZN4Sass10ColorNames10aquamarineE
_sass.abi3.so:_ZN4Sass10ColorNames10bluevioletE
_sass.abi3.so:_ZN4Sass10ColorNames10chartreuseE
_sass.abi3.so:_ZN4Sass10ColorNames10darkorangeE
_sass.abi3.so:_ZN4Sass10ColorNames10darkorchidE
_sass.abi3.so:_ZN4Sass10ColorNames10darksalmonE
_sass.abi3.so:_ZN4Sass10ColorNames10darkvioletE
_sass.abi3.so:_ZN4Sass10ColorNames10dodgerblueE
_sass.abi3.so:_ZN4Sass10ColorNames10ghostwhiteE
_sass.abi3.so:_ZN4Sass10ColorNames10lightcoralE
_sass.abi3.so:_ZN4Sass10ColorNames10lightgreenE
_sass.abi3.so:_ZN4Sass10ColorNames10mediumblueE
_sass.abi3.so:_ZN4Sass10ColorNames10papayawhipE
_sass.abi3.so:_ZN4Sass10ColorNames10powderblueE
_sass.abi3.so:_ZN4Sass10ColorNames10sandybrownE
_sass.abi3.so:_ZN4Sass10ColorNames10whitesmokeE
_sass.abi3.so:_ZN4Sass10ColorNames11darkmagentaE
_sass.abi3.so:_ZN4Sass10ColorNames11deepskyblueE
_sass.abi3.so:_ZN4Sass10ColorNames11floralwhiteE
_sass.abi3.so:_ZN4Sass10ColorNames11forestgreenE
_sass.abi3.so:_ZN4Sass10ColorNames11greenyellowE
_sass.abi3.so:_ZN4Sass10ColorNames11lightsalmonE
_sass.abi3.so:_ZN4Sass10ColorNames11lightyellowE
_sass.abi3.so:_ZN4Sass10ColorNames11navajowhiteE
_sass.abi3.so:_ZN4Sass10ColorNames11saddlebrownE
_sass.abi3.so:_ZN4Sass10ColorNames11springgreenE
_sass.abi3.so:_ZN4Sass10ColorNames11transparentE
_sass.abi3.so:_ZN4Sass10ColorNames11yellowgreenE
_sass.abi3.so:_ZN4Sass10ColorNames12antiquewhiteE
_sass.abi3.so:_ZN4Sass10ColorNames12darkseagreenE
_sass.abi3.so:_ZN4Sass10ColorNames12lemonchiffonE
_sass.abi3.so:_ZN4Sass10ColorNames12lightskyblueE
_sass.abi3.so:_ZN4Sass10ColorNames12mediumorchidE
_sass.abi3.so:_ZN4Sass10ColorNames12mediumpurpleE
_sass.abi3.so:_ZN4Sass10ColorNames12midnightblueE
_sass.abi3.so:_ZN4Sass10ColorNames13darkgoldenrodE
_sass.abi3.so:_ZN4Sass10ColorNames13darkslateblueE
_sass.abi3.so:_ZN4Sass10ColorNames13darkslategrayE
_sass.abi3.so:_ZN4Sass10ColorNames13darkslategreyE
_sass.abi3.so:_ZN4Sass10ColorNames13darkturquoiseE
_sass.abi3.so:_ZN4Sass10ColorNames13lavenderblushE
_sass.abi3.so:_ZN4Sass10ColorNames13lightseagreenE
_sass.abi3.so:_ZN4Sass10ColorNames13palegoldenrodE
_sass.abi3.so:_ZN4Sass10ColorNames13paleturquoiseE
_sass.abi3.so:_ZN4Sass10ColorNames13palevioletredE
_sass.abi3.so:_ZN4Sass10ColorNames13rebeccapurpleE
_sass.abi3.so:_ZN4Sass10ColorNames14blanchedalmondE
_sass.abi3.so:_ZN4Sass10ColorNames14cornflowerblueE
_sass.abi3.so:_ZN4Sass10ColorNames14darkolivegreenE
_sass.abi3.so:_ZN4Sass10ColorNames14lightslategrayE
_sass.abi3.so:_ZN4Sass10ColorNames14lightslategreyE
_sass.abi3.so:_ZN4Sass10ColorNames14lightsteelblueE
_sass.abi3.so:_ZN4Sass10ColorNames14mediumseagreenE
_sass.abi3.so:_ZN4Sass10ColorNames15mediumslateblueE
_sass.abi3.so:_ZN4Sass10ColorNames15mediumturquoiseE
_sass.abi3.so:_ZN4Sass10ColorNames15mediumvioletredE
_sass.abi3.so:_ZN4Sass10ColorNames16mediumaquamarineE
_sass.abi3.so:_ZN4Sass10ColorNames17mediumspringgreenE
_sass.abi3.so:_ZN4Sass10ColorNames20lightgoldenrodyellowE
_sass.abi3.so:_ZN4Sass10ColorNames3redE
_sass.abi3.so:_ZN4Sass10ColorNames3tanE
_sass.abi3.so:_ZN4Sass10ColorNames4aquaE
_sass.abi3.so:_ZN4Sass10ColorNames4blueE
_sass.abi3.so:_ZN4Sass10ColorNames4cyanE
_sass.abi3.so:_ZN4Sass10ColorNames4goldE
_sass.abi3.so:_ZN4Sass10ColorNames4grayE
_sass.abi3.so:_ZN4Sass10ColorNames4greyE
_sass.abi3.so:_ZN4Sass10ColorNames4limeE
_sass.abi3.so:_ZN4Sass10ColorNames4navyE
_sass.abi3.so:_ZN4Sass10ColorNames4peruE
_sass.abi3.so:_ZN4Sass10ColorNames4pinkE
_sass.abi3.so:_ZN4Sass10ColorNames4plumE
_sass.abi3.so:_ZN4Sass10ColorNames4snowE
_sass.abi3.so:_ZN4Sass10ColorNames4tealE
_sass.abi3.so:_ZN4Sass10ColorNames5azureE
_sass.abi3.so:_ZN4Sass10ColorNames5beigeE
_sass.abi3.so:_ZN4Sass10ColorNames5blackE
_sass.abi3.so:_ZN4Sass10ColorNames5brownE
_sass.abi3.so:_ZN4Sass10ColorNames5coralE
_sass.abi3.so:_ZN4Sass10ColorNames5greenE
_sass.abi3.so:_ZN4Sass10ColorNames5ivoryE
_sass.abi3.so:_ZN4Sass10ColorNames5khakiE
_sass.abi3.so:_ZN4Sass10ColorNames5linenE
_sass.abi3.so:_ZN4Sass10ColorNames5oliveE
_sass.abi3.so:_ZN4Sass10ColorNames5wheatE
_sass.abi3.so:_ZN4Sass10ColorNames5whiteE
_sass.abi3.so:_ZN4Sass10ColorNames6bisqueE
_sass.abi3.so:_ZN4Sass10ColorNames6indigoE
_sass.abi3.so:_ZN4Sass10ColorNames6maroonE
_sass.abi3.so:_ZN4Sass10ColorNames6orangeE
_sass.abi3.so:_ZN4Sass10ColorNames6orchidE
_sass.abi3.so:_ZN4Sass10ColorNames6purpleE
_sass.abi3.so:_ZN4Sass10ColorNames6salmonE
_sass.abi3.so:_ZN4Sass10ColorNames6siennaE
_sass.abi3.so:_ZN4Sass10ColorNames6silverE
_sass.abi3.so:_ZN4Sass10ColorNames6tomatoE
_sass.abi3.so:_ZN4Sass10ColorNames6violetE
_sass.abi3.so:_ZN4Sass10ColorNames6yellowE
_sass.abi3.so:_ZN4Sass10ColorNames7crimsonE
_sass.abi3.so:_ZN4Sass10ColorNames7darkredE
_sass.abi3.so:_ZN4Sass10ColorNames7dimgrayE
_sass.abi3.so:_ZN4Sass10ColorNames7dimgreyE
_sass.abi3.so:_ZN4Sass10ColorNames7fuchsiaE
_sass.abi3.so:_ZN4Sass10ColorNames7hotpinkE
_sass.abi3.so:_ZN4Sass10ColorNames7magentaE
_sass.abi3.so:_ZN4Sass10ColorNames7oldlaceE
_sass.abi3.so:_ZN4Sass10ColorNames7skyblueE
_sass.abi3.so:_ZN4Sass10ColorNames7thistleE
_sass.abi3.so:_ZN4Sass10ColorNames8cornsilkE
_sass.abi3.so:_ZN4Sass10ColorNames8darkblueE
_sass.abi3.so:_ZN4Sass10ColorNames8darkcyanE
_sass.abi3.so:_ZN4Sass10ColorNames8darkgrayE
_sass.abi3.so:_ZN4Sass10ColorNames8darkgreyE
_sass.abi3.so:_ZN4Sass10ColorNames8deeppinkE
_sass.abi3.so:_ZN4Sass10ColorNames8honeydewE
_sass.abi3.so:_ZN4Sass10ColorNames8lavenderE
_sass.abi3.so:_ZN4Sass10ColorNames8moccasinE
_sass.abi3.so:_ZN4Sass10ColorNames8seagreenE
_sass.abi3.so:_ZN4Sass10ColorNames8seashellE
_sass.abi3.so:_ZN4Sass10ColorNames9aliceblueE
_sass.abi3.so:_ZN4Sass10ColorNames9burlywoodE
_sass.abi3.so:_ZN4Sass10ColorNames9cadetblueE
_sass.abi3.so:_ZN4Sass10ColorNames9chocolateE
_sass.abi3.so:_ZN4Sass10ColorNames9darkgreenE
_sass.abi3.so:_ZN4Sass10ColorNames9darkkhakiE
_sass.abi3.so:_ZN4Sass10ColorNames9firebrickE
_sass.abi3.so:_ZN4Sass10ColorNames9gainsboroE
_sass.abi3.so:_ZN4Sass10ColorNames9goldenrodE
_sass.abi3.so:_ZN4Sass10ColorNames9indianredE
_sass.abi3.so:_ZN4Sass10ColorNames9lawngreenE
_sass.abi3.so:_ZN4Sass10ColorNames9lightblueE
_sass.abi3.so:_ZN4Sass10ColorNames9lightcyanE
_sass.abi3.so:_ZN4Sass10ColorNames9lightgrayE
_sass.abi3.so:_ZN4Sass10ColorNames9lightgreyE
_sass.abi3.so:_ZN4Sass10ColorNames9lightpinkE
_sass.abi3.so:_ZN4Sass10ColorNames9limegreenE
_sass.abi3.so:_ZN4Sass10ColorNames9mintcreamE
_sass.abi3.so:_ZN4Sass10ColorNames9mistyroseE
_sass.abi3.so:_ZN4Sass10ColorNames9olivedrabE
_sass.abi3.so:_ZN4Sass10ColorNames9orangeredE
_sass.abi3.so:_ZN4Sass10ColorNames9palegreenE
_sass.abi3.so:_ZN4Sass10ColorNames9peachpuffE
_sass.abi3.so:_ZN4Sass10ColorNames9rosybrownE
_sass.abi3.so:_ZN4Sass10ColorNames9royalblueE
_sass.abi3.so:_ZN4Sass10ColorNames9slateblueE
_sass.abi3.so:_ZN4Sass10ColorNames9slategrayE
_sass.abi3.so:_ZN4Sass10ColorNames9slategreyE
_sass.abi3.so:_ZN4Sass10ColorNames9steelblueE
_sass.abi3.so:_ZN4Sass10ColorNames9turquoiseE
_sass.abi3.so:_ZN4Sass10Color_HSLAC1ENS_10SourceSpanEddddNSt7__cxx1112basic_stringIcSt11char_traitsIcESaIcEEE
_sass.abi3.so:_ZN4Sass10Color_HSLAC1EPKS0_
_sass.abi3.so:_ZN4Sass10Color_HSLAC2ENS_10SourceSpanEddddNSt7__cxx1112basic_stringIcSt11char_traitsIcESaIcEEE
_sass.abi3.so:_ZN4Sass10Color_HSLAC2EPKS0_
_sass.abi3.so:_ZN4Sass10Color_RGBAC1ENS_10SourceSpanEddddNSt7__cxx1112basic_stringIcSt11char_traitsIcESaIcEEE
_sass.abi3.so:_ZN4Sass10Color_RGBAC1EPKS0_
_sass.abi3.so:_ZN4Sass10Color_RGBAC2ENS_10SourceSpanEddddNSt7__cxx1112basic_stringIcSt11char_traitsIcESaIcEEE
_sass.abi3.so:_ZN4Sass10Color_RGBAC2EPKS0_
_sass.abi3.so:_ZN4Sass10DefinitionC1ENS_10SourceSpanENSt7__cxx1112basic_stringIcSt11char_traitsIcESaIcEEENS_10SharedImplINS_10ParametersEEENS8_INS_5BlockEEENS0_4TypeE
_sass.abi3.so:_ZN4Sass10DefinitionC1ENS_10SourceSpanEPKcNSt7__cxx1112basic_stringIcSt11char_traitsIcESaIcEEENS_10SharedImplINS_10ParametersEEEP13Sass_Function
_sass.abi3.so:_ZN4Sass10DefinitionC1ENS_10SourceSpanEPKcNSt7__cxx1112basic_stringIcSt11char_traitsIcESaIcEEENS_10SharedImplINS_10ParametersEEEPFPNS_8PreValueERNS_11EnvironmentINSA_INS_8AST_NodeEEEEESJ_RNS_7ContextES3_S1_RSt6vectorINS_9BacktraceESaISN_EESM_INSA_INS_12SelectorListEEESaISS_EESU_Eb
_sass.abi3.so:_ZN4Sass10DefinitionC1EPKS0_
_sass.abi3.so:_ZN4Sass10DefinitionC2ENS_10SourceSpanENSt7__cxx1112basic_stringIcSt11char_traitsIcESaIcEEENS_10SharedImplINS_10ParametersEEENS8_INS_5BlockEEENS0_4TypeE
_sass.abi3.so:_ZN4Sass10DefinitionC2ENS_10SourceSpanEPKcNSt7__cxx1112basic_stringIcSt11char_traitsIcESaIcEEENS_10SharedImplINS_10ParametersEEEP13Sass_Function
_sass.abi3.so:_ZN4Sass10DefinitionC2ENS_10SourceSpanEPKcNSt7__cxx1112basic_stringIcSt11char_traitsIcESaIcEEENS_10SharedImplINS_10ParametersEEEPFPNS_8PreValueERNS_11EnvironmentINSA_INS_8AST_NodeEEEEESJ_RNS_7ContextES3_S1_RSt6vectorINS_9BacktraceESaISN_EESM_INSA_INS_12SelectorListEEESaISS_EESU_Eb
_sass.abi3.so:_ZN4Sass10DefinitionC2EPKS0_
_sass.abi3.so:_ZN4Sass10ExpressionC1ENS_10SourceSpanEbbbNS0_4TypeE
_sass.abi3.so:_ZN4Sass10ExpressionC1EPKS0_
_sass.abi3.so:_ZN4Sass10ExpressionC2ENS_10SourceSpanEbbbNS0_4TypeE
_sass.abi3.so:_ZN4Sass10ExpressionC2EPKS0_
_sass.abi3.so:_ZN4Sass10ExtendRuleC1ENS_10SourceSpanENS_10SharedImplINS_12SelectorListEEE
_sass.abi3.so:_ZN4Sass10ExtendRuleC1ENS_10SourceSpanENS_10SharedImplINS_15Selector_SchemaEEE
_sass.abi3.so:_ZN4Sass10ExtendRuleC1EPKS0_
_sass.abi3.so:_ZN4Sass10ExtendRuleC2ENS_10SourceSpanENS_10SharedImplINS_12SelectorListEEE
_sass.abi3.so:_ZN4Sass10ExtendRuleC2ENS_10SourceSpanENS_10SharedImplINS_15Selector_SchemaEEE
_sass.abi3.so:_ZN4Sass10ExtendRuleC2EPKS0_
_sass.abi3.so:_ZN4Sass10IDSelector9unifyWithEPNS_16CompoundSelectorE
_sass.abi3.so:_ZN4Sass10IDSelectorC1ENS_10SourceSpanENSt7__cxx1112basic_stringIcSt11char_traitsIcESaIcEEE
_sass.abi3.so:_ZN4Sass10IDSelectorC1EPKS0_
_sass.abi3.so:_ZN4Sass10IDSelectorC2ENS_10SourceSpanENSt7__cxx1112basic_stringIcSt11char_traitsIcESaIcEEE
_sass.abi3.so:_ZN4Sass10IDSelectorC2EPKS0_
_sass.abi3.so:_ZN4Sass10Mixin_CallC1ENS_10SourceSpanENSt7__cxx1112basic_stringIcSt11char_traitsIcESaIcEEENS_10SharedImplINS_9ArgumentsEEENS8_INS_10ParametersEEENS8_INS_5BlockEEE
_sass.abi3.so:_ZN4Sass10Mixin_CallC1EPKS0_
_sass.abi3.so:_ZN4Sass10Mixin_CallC2ENS_10SourceSpanENSt7__cxx1112basic_stringIcSt11char_traitsIcESaIcEEENS_10SharedImplINS_9ArgumentsEEENS8_INS_10ParametersEEENS8_INS_5BlockEEE
_sass.abi3.so:_ZN4Sass10Mixin_CallC2EPKS0_
_sass.abi3.so:_ZN4Sass10Parameters20adjust_after_pushingENS_10SharedImplINS_9ParameterEEE
_sass.abi3.so:_ZN4Sass10ParametersC1ENS_10SourceSpanE
_sass.abi3.so:_ZN4Sass10ParametersC1EPKS0_
_sass.abi3.so:_ZN4Sass10ParametersC2ENS_10SourceSpanE
_sass.abi3.so:_ZN4Sass10ParametersC2EPKS0_
_sass.abi3.so:_ZN4Sass10SourceDataC1Ev
_sass.abi3.so:_ZN4Sass10SourceDataC2Ev
_sass.abi3.so:_ZN4Sass10SourceFile13getSourceSpanEv
_sass.abi3.so:_ZN4Sass10SourceFileC1EPKcS2_m
_sass.abi3.so:_ZN4Sass10SourceFileC2EPKcS2_m
_sass.abi3.so:_ZN4Sass10SourceFileD0Ev
_sass.abi3.so:_ZN4Sass10SourceFileD1Ev
_sass.abi3.so:_ZN4Sass10SourceFileD2Ev
_sass.abi3.so:_ZN4Sass10SourceSpanC1ENS_10SharedImplINS_10SourceDataEEERKNS_6OffsetES6_
_sass.abi3.so:_ZN4Sass10SourceSpanC1EPKc
_sass.abi3.so:_ZN4Sass10SourceSpanC2ENS_10SharedImplINS_10SourceDataEEERKNS_6OffsetES6_
_sass.abi3.so:_ZN4Sass10SourceSpanC2EPKc
_sass.abi3.so:_ZN4Sass10StyleSheetC1ERKNS_8ResourceENS_10SharedImplINS_5BlockEEE
_sass.abi3.so:_ZN4Sass10StyleSheetC1ERKS0_
_sass.abi3.so:_ZN4Sass10StyleSheetC2ERKNS_8ResourceENS_10SharedImplINS_5BlockEEE
_sass.abi3.so:_ZN4Sass10StyleSheetC2ERKS0_
_sass.abi3.so:_ZN4Sass10deprecatedENSt7__cxx1112basic_stringIcSt11char_traitsIcESaIcEEES5_bNS_10SourceSpanE
_sass.abi3.so:_ZN4Sass11DeclarationC1ENS_10SourceSpanENS_10SharedImplINS_6StringEEENS2_INS_10ExpressionEEEbbNS2_INS_5BlockEEE
_sass.abi3.so:_ZN4Sass11DeclarationC1EPKS0_
_sass.abi3.so:_ZN4Sass11DeclarationC2ENS_10SourceSpanENS_10SharedImplINS_6StringEEENS2_INS_10ExpressionEEEbbNS2_INS_5BlockEEE
_sass.abi3.so:_ZN4Sass11DeclarationC2EPKS0_
_sass.abi3.so:_ZN4Sass11Import_Stub8abs_pathB5cxx11Ev
_sass.abi3.so:_ZN4Sass11Import_Stub8imp_pathB5cxx11Ev
_sass.abi3.so:_ZN4Sass11Import_Stub8resourceEv
_sass.abi3.so:_ZN4Sass11Import_StubC1ENS_10SourceSpanENS_7IncludeE
_sass.abi3.so:_ZN4Sass11Import_StubC1EPKS0_
_sass.abi3.so:_ZN4Sass11Import_StubC2ENS_10SourceSpanENS_7IncludeE
_sass.abi3.so:_ZN4Sass11Import_StubC2EPKS0_
_sass.abi3.so:_ZN4Sass11Media_QueryC1ENS_10SourceSpanENS_10SharedImplINS_6StringEEEmbb
_sass.abi3.so:_ZN4Sass11Media_QueryC1EPKS0_
_sass.abi3.so:_ZN4Sass11Media_QueryC2ENS_10SourceSpanENS_10SharedImplINS_6StringEEEmbb
_sass.abi3.so:_ZN4Sass11Media_QueryC2EPKS0_
_sass.abi3.so:_ZN4Sass11WarningRuleC1ENS_10SourceSpanENS_10SharedImplINS_10ExpressionEEE
_sass.abi3.so:_ZN4Sass11WarningRuleC1EPKS0_
_sass.abi3.so:_ZN4Sass11WarningRuleC2ENS_10SourceSpanENS_10SharedImplINS_10ExpressionEEE
_sass.abi3.so:_ZN4Sass11WarningRuleC2EPKS0_
_sass.abi3.so:_ZN4Sass11sass_strtodEPKc
_sass.abi3.so:_ZN4Sass12CheckNesting10is_charsetEPNS_9StatementE
_sass.abi3.so:_ZN4Sass12CheckNesting11is_functionEPNS_9StatementE
_sass.abi3.so:_ZN4Sass12CheckNesting12is_root_nodeEPNS_9StatementE
_sass.abi3.so:_ZN4Sass12CheckNesting12should_visitEPNS_9StatementE
_sass.abi3.so:_ZN4Sass12CheckNesting14visit_childrenEPNS_9StatementE
_sass.abi3.so:_ZN4Sass12CheckNesting15is_at_root_nodeEPNS_9StatementE
_sass.abi3.so:_ZN4Sass12CheckNesting17is_directive_nodeEPNS_9StatementE
_sass.abi3.so:_ZN4Sass12CheckNesting18invalid_prop_childEPNS_9StatementE
_sass.abi3.so:_ZN4Sass12CheckNesting19invalid_prop_parentEPNS_9StatementEPNS_8AST_NodeE
_sass.abi3.so:_ZN4Sass12CheckNesting19invalid_value_childEPNS_8AST_NodeE
_sass.abi3.so:_ZN4Sass12CheckNesting21invalid_extend_parentEPNS_9StatementEPNS_8AST_NodeE
_sass.abi3.so:_ZN4Sass12CheckNesting21invalid_return_parentEPNS_9StatementEPNS_8AST_NodeE
_sass.abi3.so:_ZN4Sass12CheckNesting21is_transparent_parentEPNS_9StatementES2_
_sass.abi3.so:_ZN4Sass12CheckNesting22invalid_charset_parentEPNS_9StatementEPNS_8AST_NodeE
_sass.abi3.so:_ZN4Sass12CheckNesting22invalid_content_parentEPNS_9StatementEPNS_8AST_NodeE
_sass.abi3.so:_ZN4Sass12CheckNesting22invalid_function_childEPNS_9StatementE
_sass.abi3.so:_ZN4Sass12CheckNesting23invalid_function_parentEPNS_9StatementEPNS_8AST_NodeE
_sass.abi3.so:_ZN4Sass12CheckNesting31invalid_mixin_definition_parentEPNS_9StatementEPNS_8AST_NodeE
_sass.abi3.so:_ZN4Sass12CheckNesting8is_mixinEPNS_9StatementE
_sass.abi3.so:_ZN4Sass12CheckNestingC1Ev
_sass.abi3.so:_ZN4Sass12CheckNestingC2Ev
_sass.abi3.so:_ZN4Sass12CheckNestingclEPNS_10DefinitionE
_sass.abi3.so:_ZN4Sass12CheckNestingclEPNS_2IfE
_sass.abi3.so:_ZN4Sass12CheckNestingclEPNS_5BlockE
_sass.abi3.so:_ZN4Sass12CssMediaRuleC1ENS_10SourceSpanENS_10SharedImplINS_5BlockEEE
_sass.abi3.so:_ZN4Sass12CssMediaRuleC1EPKS0_
_sass.abi3.so:_ZN4Sass12CssMediaRuleC2ENS_10SourceSpanENS_10SharedImplINS_5BlockEEE
_sass.abi3.so:_ZN4Sass12CssMediaRuleC2EPKS0_
_sass.abi3.so:_ZN4Sass12Custom_ErrorC1ENS_10SourceSpanENSt7__cxx1112basic_stringIcSt11char_traitsIcESaIcEEE
_sass.abi3.so:_ZN4Sass12Custom_ErrorC1EPKS0_
_sass.abi3.so:_ZN4Sass12Custom_ErrorC2ENS_10SourceSpanENSt7__cxx1112basic_stringIcSt11char_traitsIcESaIcEEE
_sass.abi3.so:_ZN4Sass12Custom_ErrorC2EPKS0_
_sass.abi3.so:_ZN4Sass12Data_Context5parseEv
_sass.abi3.so:_ZN4Sass12Data_ContextD0Ev
_sass.abi3.so:_ZN4Sass12Data_ContextD1Ev
_sass.abi3.so:_ZN4Sass12Data_ContextD2Ev
_sass.abi3.so:_ZN4Sass12File_Context5parseEv
_sass.abi3.so:_ZN4Sass12File_ContextD0Ev
_sass.abi3.so:_ZN4Sass12File_ContextD1Ev
_sass.abi3.so:_ZN4Sass12File_ContextD2Ev
_sass.abi3.so:_ZN4Sass12SelectorList13cloneChildrenEv
_sass.abi3.so:_ZN4Sass12SelectorList19resolve_parent_refsESt6vectorINS_10SharedImplIS0_EESaIS3_EERS1_INS_9BacktraceESaIS6_EEb
_sass.abi3.so:_ZN4Sass12SelectorList9unifyWithEPS0_
_sass.abi3.so:_ZN4Sass12SelectorListC1ENS_10SourceSpanEm
_sass.abi3.so:_ZN4Sass12SelectorListC1EPKS0_
_sass.abi3.so:_ZN4Sass12SelectorListC2ENS_10SourceSpanEm
_sass.abi3.so:_ZN4Sass12SelectorListC2EPKS0_
_sass.abi3.so:_ZN4Sass12SupportsRule7bubblesEv
_sass.abi3.so:_ZN4Sass12SupportsRuleC1ENS_10SourceSpanENS_10SharedImplINS_17SupportsConditionEEENS2_INS_5BlockEEE
_sass.abi3.so:_ZN4Sass12SupportsRuleC1EPKS0_
_sass.abi3.so:_ZN4Sass12SupportsRuleC2ENS_10SourceSpanENS_10SharedImplINS_17SupportsConditionEEENS2_INS_5BlockEEE
_sass.abi3.so:_ZN4Sass12SupportsRuleC2EPKS0_
_sass.abi3.so:_ZN4Sass12TypeSelector9unifyWithEPKNS_14SimpleSelectorE
_sass.abi3.so:_ZN4Sass12TypeSelector9unifyWithEPNS_16CompoundSelectorE
_sass.abi3.so:_ZN4Sass12TypeSelectorC1ENS_10SourceSpanENSt7__cxx1112basic_stringIcSt11char_traitsIcESaIcEEE
_sass.abi3.so:_ZN4Sass12TypeSelectorC1EPKS0_
_sass.abi3.so:_ZN4Sass12TypeSelectorC2ENS_10SourceSpanENSt7__cxx1112basic_stringIcSt11char_traitsIcESaIcEEE
_sass.abi3.so:_ZN4Sass12TypeSelectorC2EPKS0_
_sass.abi3.so:_ZN4Sass12copy_stringsERKSt6vectorINSt7__cxx1112basic_stringIcSt11char_traitsIcESaIcEEESaIS6_EEPPPci
_sass.abi3.so:_ZN4Sass12unifyComplexERKSt6vectorIS0_INS_10SharedImplINS_17SelectorComponentEEESaIS3_EESaIS5_EE
_sass.abi3.so:_ZN4Sass12weaveParentsESt6vectorINS_10SharedImplINS_17SelectorComponentEEESaIS3_EES5_
_sass.abi3.so:_ZN4Sass13At_Root_Query7excludeENSt7__cxx1112basic_stringIcSt11char_traitsIcESaIcEEE
_sass.abi3.so:_ZN4Sass13At_Root_QueryC1ENS_10SourceSpanENS_10SharedImplINS_10ExpressionEEES4_b
_sass.abi3.so:_ZN4Sass13At_Root_QueryC1EPKS0_
_sass.abi3.so:_ZN4Sass13At_Root_QueryC2ENS_10SourceSpanENS_10SharedImplINS_10ExpressionEEES4_b
_sass.abi3.so:_ZN4Sass13At_Root_QueryC2EPKS0_
_sass.abi3.so:_ZN4Sass13BothAreSpacesEcc
_sass.abi3.so:_ZN4Sass13ClassSelectorC1ENS_10SourceSpanENSt7__cxx1112basic_stringIcSt11char_traitsIcESaIcEEE
_sass.abi3.so:_ZN4Sass13ClassSelectorC1EPKS0_
_sass.abi3.so:_ZN4Sass13ClassSelectorC2ENS_10SourceSpanENSt7__cxx1112basic_stringIcSt11char_traitsIcESaIcEEE
_sass.abi3.so:_ZN4Sass13ClassSelectorC2EPKS0_
_sass.abi3.so:_ZN4Sass13CssMediaQuery5mergeERNS_10SharedImplIS0_EE
_sass.abi3.so:_ZN4Sass13CssMediaQueryC1ENS_10SourceSpanE
_sass.abi3.so:_ZN4Sass13CssMediaQueryC1EPKS0_
_sass.abi3.so:_ZN4Sass13CssMediaQueryC2ENS_10SourceSpanE
_sass.abi3.so:_ZN4Sass13CssMediaQueryC2EPKS0_
_sass.abi3.so:_ZN4Sass13Function_Call6is_cssEv
_sass.abi3.so:_ZN4Sass13Function_CallC1ENS_10SourceSpanENS_10SharedImplINS_6StringEEENS2_INS_9ArgumentsEEE
_sass.abi3.so:_ZN4Sass13Function_CallC1ENS_10SourceSpanENS_10SharedImplINS_6StringEEENS2_INS_9ArgumentsEEENS2_INS_8FunctionEEE
_sass.abi3.so:_ZN4Sass13Function_CallC1ENS_10SourceSpanENS_10SharedImplINS_6StringEEENS2_INS_9ArgumentsEEEPv
_sass.abi3.so:_ZN4Sass13Function_CallC1ENS_10SourceSpanENSt7__cxx1112basic_stringIcSt11char_traitsIcESaIcEEENS_10SharedImplINS_9ArgumentsEEE
_sass.abi3.so:_ZN4Sass13Function_CallC1ENS_10SourceSpanENSt7__cxx1112basic_stringIcSt11char_traitsIcESaIcEEENS_10SharedImplINS_9ArgumentsEEENS8_INS_8FunctionEEE
_sass.abi3.so:_ZN4Sass13Function_CallC1ENS_10SourceSpanENSt7__cxx1112basic_stringIcSt11char_traitsIcESaIcEEENS_10SharedImplINS_9ArgumentsEEEPv
_sass.abi3.so:_ZN4Sass13Function_CallC1EPKS0_
_sass.abi3.so:_ZN4Sass13Function_CallC2ENS_10SourceSpanENS_10SharedImplINS_6StringEEENS2_INS_9ArgumentsEEE
_sass.abi3.so:_ZN4Sass13Function_CallC2ENS_10SourceSpanENS_10SharedImplINS_6StringEEENS2_INS_9ArgumentsEEENS2_INS_8FunctionEEE
_sass.abi3.so:_ZN4Sass13Function_CallC2ENS_10SourceSpanENS_10SharedImplINS_6StringEEENS2_INS_9ArgumentsEEEPv
_sass.abi3.so:_ZN4Sass13Function_CallC2ENS_10SourceSpanENSt7__cxx1112basic_stringIcSt11char_traitsIcESaIcEEENS_10SharedImplINS_9ArgumentsEEE
_sass.abi3.so:_ZN4Sass13Function_CallC2ENS_10SourceSpanENSt7__cxx1112basic_stringIcSt11char_traitsIcESaIcEEENS_10SharedImplINS_9ArgumentsEEENS8_INS_8FunctionEEE
_sass.abi3.so:_ZN4Sass13Function_CallC2ENS_10SourceSpanENSt7__cxx1112basic_stringIcSt11char_traitsIcESaIcEEENS_10SharedImplINS_9ArgumentsEEEPv
_sass.abi3.so:_ZN4Sass13Function_CallC2EPKS0_
_sass.abi3.so:_ZN4Sass13Keyframe_RuleC1ENS_10SourceSpanENS_10SharedImplINS_5BlockEEE
_sass.abi3.so:_ZN4Sass13Keyframe_RuleC1EPKS0_
_sass.abi3.so:_ZN4Sass13Keyframe_RuleC2ENS_10SourceSpanENS_10SharedImplINS_5BlockEEE
_sass.abi3.so:_ZN4Sass13Keyframe_RuleC2EPKS0_
_sass.abi3.so:_ZN4Sass13String_QuotedC1ENS_10SourceSpanENSt7__cxx1112basic_stringIcSt11char_traitsIcESaIcEEEcbbbb
_sass.abi3.so:_ZN4Sass13String_QuotedC1EPKS0_
_sass.abi3.so:_ZN4Sass13String_QuotedC2ENS_10SourceSpanENSt7__cxx1112basic_stringIcSt11char_traitsIcESaIcEEEcbbbb
_sass.abi3.so:_ZN4Sass13String_QuotedC2EPKS0_
_sass.abi3.so:_ZN4Sass13String_Schema11set_delayedEb
_sass.abi3.so:_ZN4Sass13String_Schema16has_interpolantsEv
_sass.abi3.so:_ZN4Sass13String_Schema5rtrimEv
_sass.abi3.so:_ZN4Sass13String_SchemaC1ENS_10SourceSpanEmb
_sass.abi3.so:_ZN4Sass13String_SchemaC1EPKS0_
_sass.abi3.so:_ZN4Sass13String_SchemaC2ENS_10SourceSpanEmb
_sass.abi3.so:_ZN4Sass13String_SchemaC2EPKS0_
_sass.abi3.so:_ZN4Sass13color_to_nameERKNS_10Color_RGBAE
_sass.abi3.so:_ZN4Sass13color_to_nameEd
_sass.abi3.so:_ZN4Sass13color_to_nameEi
_sass.abi3.so:_ZN4Sass13convert_unitsERKNSt7__cxx1112basic_stringIcSt11char_traitsIcESaIcEEES7_RiS8_
_sass.abi3.so:_ZN4Sass13escape_stringERKNSt7__cxx1112basic_stringIcSt11char_traitsIcESaIcEEE
_sass.abi3.so:_ZN4Sass13get_main_unitENS_9UnitClassE
_sass.abi3.so:_ZN4Sass13get_unit_typeENS_8UnitTypeE
_sass.abi3.so:_ZN4Sass13name_to_colorEPKc
_sass.abi3.so:_ZN4Sass13name_to_colorERKNSt7__cxx1112basic_stringIcSt11char_traitsIcESaIcEEE
_sass.abi3.so:_ZN4Sass13peek_linefeedEPKc
_sass.abi3.so:_ZN4Sass13unit_to_classERKNSt7__cxx1112basic_stringIcSt11char_traitsIcESaIcEEE
_sass.abi3.so:_ZN4Sass14Custom_WarningC1ENS_10SourceSpanENSt7__cxx1112basic_stringIcSt11char_traitsIcESaIcEEE
_sass.abi3.so:_ZN4Sass14Custom_WarningC1EPKS0_
_sass.abi3.so:_ZN4Sass14Custom_WarningC2ENS_10SourceSpanENSt7__cxx1112basic_stringIcSt11char_traitsIcESaIcEEE
_sass.abi3.so:_ZN4Sass14Custom_WarningC2EPKS0_
_sass.abi3.so:_ZN4Sass14PseudoSelector12withSelectorENS_10SharedImplINS_12SelectorListEEE
_sass.abi3.so:_ZN4Sass14PseudoSelector13cloneChildrenEv
_sass.abi3.so:_ZN4Sass14PseudoSelector9unifyWithEPNS_16CompoundSelectorE
_sass.abi3.so:_ZN4Sass14PseudoSelectorC1ENS_10SourceSpanENSt7__cxx1112basic_stringIcSt11char_traitsIcESaIcEEEb
_sass.abi3.so:_ZN4Sass14PseudoSelectorC1EPKS0_
_sass.abi3.so:_ZN4Sass14PseudoSelectorC2ENS_10SourceSpanENSt7__cxx1112basic_stringIcSt11char_traitsIcESaIcEEEb
_sass.abi3.so:_ZN4Sass14PseudoSelectorC2EPKS0_
_sass.abi3.so:_ZN4Sass14SimpleSelector13wrapInComplexEv
_sass.abi3.so:_ZN4Sass14SimpleSelector14wrapInCompoundEv
_sass.abi3.so:_ZN4Sass14SimpleSelector15has_placeholderEv
_sass.abi3.so:_ZN4Sass14SimpleSelector9unifyWithEPNS_16CompoundSelectorE
_sass.abi3.so:_ZN4Sass14SimpleSelectorC1ENS_10SourceSpanENSt7__cxx1112basic_stringIcSt11char_traitsIcESaIcEEE
_sass.abi3.so:_ZN4Sass14SimpleSelectorC1EPKS0_
_sass.abi3.so:_ZN4Sass14SimpleSelectorC2ENS_10SourceSpanENSt7__cxx1112basic_stringIcSt11char_traitsIcESaIcEEE
_sass.abi3.so:_ZN4Sass14SimpleSelectorC2EPKS0_
_sass.abi3.so:_ZN4Sass14getFirstIfRootERSt6vectorINS_10SharedImplINS_17SelectorComponentEEESaIS3_EE
_sass.abi3.so:_ZN4Sass14get_unit_classB5cxx11ENS_8UnitTypeE
_sass.abi3.so:_ZN4Sass14groupSelectorsERKSt6vectorINS_10SharedImplINS_17SelectorComponentEEESaIS3_EE
_sass.abi3.so:_ZN4Sass14is_hex_doubletEd
_sass.abi3.so:_ZN4Sass14string_to_unitERKNSt7__cxx1112basic_stringIcSt11char_traitsIcESaIcEEE
_sass.abi3.so:_ZN4Sass14unit_to_stringENS_8UnitTypeE
_sass.abi3.so:_ZN4Sass15ComplexSelector10wrapInListEv
_sass.abi3.so:_ZN4Sass15ComplexSelector13cloneChildrenEv
_sass.abi3.so:_ZN4Sass15ComplexSelector19resolve_parent_refsESt6vectorINS_10SharedImplINS_12SelectorListEEESaIS4_EERS1_INS_9BacktraceESaIS7_EEb
_sass.abi3.so:_ZN4Sass15ComplexSelector9unifyWithEPS0_
_sass.abi3.so:_ZN4Sass15ComplexSelectorC1ENS_10SourceSpanE
_sass.abi3.so:_ZN4Sass15ComplexSelectorC1EPKS0_
_sass.abi3.so:_ZN4Sass15ComplexSelectorC2ENS_10SourceSpanE
_sass.abi3.so:_ZN4Sass15ComplexSelectorC2EPKS0_
_sass.abi3.so:_ZN4Sass15ParentStatement11has_contentEv
_sass.abi3.so:_ZN4Sass15ParentStatementC1ENS_10SourceSpanENS_10SharedImplINS_5BlockEEE
_sass.abi3.so:_ZN4Sass15ParentStatementC1EPKS0_
_sass.abi3.so:_ZN4Sass15ParentStatementC2ENS_10SourceSpanENS_10SharedImplINS_5BlockEEE
_sass.abi3.so:_ZN4Sass15ParentStatementC2EPKS0_
_sass.abi3.so:_ZN4Sass15Selector_SchemaC1ENS_10SourceSpanENS_10SharedImplINS_6StringEEE
_sass.abi3.so:_ZN4Sass15Selector_SchemaC1EPKS0_
_sass.abi3.so:_ZN4Sass15Selector_SchemaC2ENS_10SourceSpanENS_10SharedImplINS_6StringEEE
_sass.abi3.so:_ZN4Sass15Selector_SchemaC2EPKS0_
_sass.abi3.so:_ZN4Sass15String_Constant5rtrimEv
_sass.abi3.so:_ZN4Sass15String_ConstantC1ENS_10SourceSpanENSt7__cxx1112basic_stringIcSt11char_traitsIcESaIcEEEb
_sass.abi3.so:_ZN4Sass15String_ConstantC1ENS_10SourceSpanEPKcS3_b
_sass.abi3.so:_ZN4Sass15String_ConstantC1ENS_10SourceSpanEPKcb
_sass.abi3.so:_ZN4Sass15String_ConstantC1ENS_10SourceSpanERKNS_5TokenEb
_sass.abi3.so:_ZN4Sass15String_ConstantC1EPKS0_
_sass.abi3.so:_ZN4Sass15String_ConstantC2ENS_10SourceSpanENSt7__cxx1112basic_stringIcSt11char_traitsIcESaIcEEEb
_sass.abi3.so:_ZN4Sass15String_ConstantC2ENS_10SourceSpanEPKcS3_b
_sass.abi3.so:_ZN4Sass15String_ConstantC2ENS_10SourceSpanEPKcb
_sass.abi3.so:_ZN4Sass15String_ConstantC2ENS_10SourceSpanERKNS_5TokenEb
_sass.abi3.so:_ZN4Sass15String_ConstantC2EPKS0_
_sass.abi3.so:_ZN4Sass15check_bom_charsEPKcS1_PKhm
_sass.abi3.so:_ZN4Sass15deprecated_bindENSt7__cxx1112basic_stringIcSt11char_traitsIcESaIcEEENS_10SourceSpanE
_sass.abi3.so:_ZN4Sass15make_c_functionEP13Sass_FunctionRNS_7ContextE
_sass.abi3.so:_ZN4Sass15number_has_zeroERKNSt7__cxx1112basic_stringIcSt11char_traitsIcESaIcEEE
_sass.abi3.so:_ZN4Sass15read_css_stringERKNSt7__cxx1112basic_stringIcSt11char_traitsIcESaIcEEEb
_sass.abi3.so:_ZN4Sass15sass_op_to_nameE7Sass_OP
_sass.abi3.so:_ZN4Sass16CompoundSelector12sortChildrenEv
_sass.abi3.so:_ZN4Sass16CompoundSelector13cloneChildrenEv
_sass.abi3.so:_ZN4Sass16CompoundSelector19resolve_parent_refsESt6vectorINS_10SharedImplINS_12SelectorListEEESaIS4_EERS1_INS_9BacktraceESaIS7_EEb
_sass.abi3.so:_ZN4Sass16CompoundSelector9unifyWithEPS0_
_sass.abi3.so:_ZN4Sass16CompoundSelectorC1ENS_10SourceSpanEb
_sass.abi3.so:_ZN4Sass16CompoundSelectorC1EPKS0_
_sass.abi3.so:_ZN4Sass16CompoundSelectorC2ENS_10SourceSpanEb
_sass.abi3.so:_ZN4Sass16CompoundSelectorC2EPKS0_
_sass.abi3.so:_ZN4Sass16Parent_ReferenceC1ENS_10SourceSpanE
_sass.abi3.so:_ZN4Sass16Parent_ReferenceC1EPKS0_
_sass.abi3.so:_ZN4Sass16Parent_ReferenceC2ENS_10SourceSpanE
_sass.abi3.so:_ZN4Sass16Parent_ReferenceC2EPKS0_
_sass.abi3.so:_ZN4Sass16SupportsNegationC1ENS_10SourceSpanENS_10SharedImplINS_17SupportsConditionEEE
_sass.abi3.so:_ZN4Sass16SupportsNegationC1EPKS0_
_sass.abi3.so:_ZN4Sass16SupportsNegationC2ENS_10SourceSpanENS_10SharedImplINS_17SupportsConditionEEE
_sass.abi3.so:_ZN4Sass16SupportsNegationC2EPKS0_
_sass.abi3.so:_ZN4Sass16Unary_Expression9type_nameB5cxx11Ev
_sass.abi3.so:_ZN4Sass16Unary_ExpressionC1ENS_10SourceSpanENS0_4TypeENS_10SharedImplINS_10ExpressionEEE
_sass.abi3.so:_ZN4Sass16Unary_ExpressionC1EPKS0_
_sass.abi3.so:_ZN4Sass16Unary_ExpressionC2ENS_10SourceSpanENS0_4TypeENS_10SharedImplINS_10ExpressionEEE
_sass.abi3.so:_ZN4Sass16Unary_ExpressionC2EPKS0_
_sass.abi3.so:_ZN4Sass16evacuate_escapesERKNSt7__cxx1112basic_stringIcSt11char_traitsIcESaIcEEE
_sass.abi3.so:_ZN4Sass16is_color_doubletEddd
_sass.abi3.so:_ZN4Sass16newline_to_spaceERNSt7__cxx1112basic_stringIcSt11char_traitsIcESaIcEEE
_sass.abi3.so:_ZN4Sass16read_hex_escapesERKNSt7__cxx1112basic_stringIcSt11char_traitsIcESaIcEEE
_sass.abi3.so:_ZN4Sass16sass_copy_stringENSt7__cxx1112basic_stringIcSt11char_traitsIcESaIcEEE
_sass.abi3.so:_ZN4Sass16string_to_outputERKNSt7__cxx1112basic_stringIcSt11char_traitsIcESaIcEEE
_sass.abi3.so:_ZN4Sass16traces_to_stringESt6vectorINS_9BacktraceESaIS1_EENSt7__cxx1112basic_stringIcSt11char_traitsIcESaIcEEE
_sass.abi3.so:_ZN4Sass17AttributeSelectorC1ENS_10SourceSpanENSt7__cxx1112basic_stringIcSt11char_traitsIcESaIcEEES7_NS_10SharedImplINS_6StringEEEc
_sass.abi3.so:_ZN4Sass17AttributeSelectorC1EPKS0_
_sass.abi3.so:_ZN4Sass17AttributeSelectorC2ENS_10SourceSpanENSt7__cxx1112basic_stringIcSt11char_traitsIcESaIcEEES7_NS_10SharedImplINS_6StringEEEc
_sass.abi3.so:_ZN4Sass17AttributeSelectorC2EPKS0_
_sass.abi3.so:_ZN4Sass17Binary_Expression11set_delayedEb
_sass.abi3.so:_ZN4Sass17Binary_Expression9separatorB5cxx11Ev
_sass.abi3.so:_ZN4Sass17Binary_Expression9type_nameB5cxx11Ev
_sass.abi3.so:_ZN4Sass17Binary_ExpressionC1ENS_10SourceSpanENS_7OperandENS_10SharedImplINS_10ExpressionEEES5_
_sass.abi3.so:_ZN4Sass17Binary_ExpressionC1EPKS0_
_sass.abi3.so:_ZN4Sass17Binary_ExpressionC2ENS_10SourceSpanENS_7OperandENS_10SharedImplINS_10ExpressionEEES5_
_sass.abi3.so:_ZN4Sass17Binary_ExpressionC2EPKS0_
_sass.abi3.so:_ZN4Sass17SelectorComponent13cloneChildrenEv
_sass.abi3.so:_ZN4Sass17SelectorComponent13wrapInComplexEv
_sass.abi3.so:_ZN4Sass17SelectorComponentC1ENS_10SourceSpanEb
_sass.abi3.so:_ZN4Sass17SelectorComponentC1EPKS0_
_sass.abi3.so:_ZN4Sass17SelectorComponentC2ENS_10SourceSpanEb
_sass.abi3.so:_ZN4Sass17SelectorComponentC2EPKS0_
_sass.abi3.so:_ZN4Sass17SupportsConditionC1ENS_10SourceSpanE
_sass.abi3.so:_ZN4Sass17SupportsConditionC1EPKS0_
_sass.abi3.so:_ZN4Sass17SupportsConditionC2ENS_10SourceSpanE
_sass.abi3.so:_ZN4Sass17SupportsConditionC2EPKS0_
_sass.abi3.so:_ZN4Sass17SupportsOperationC1ENS_10SourceSpanENS_10SharedImplINS_17SupportsConditionEEES4_NS0_7OperandE
_sass.abi3.so:_ZN4Sass17SupportsOperationC1EPKS0_
_sass.abi3.so:_ZN4Sass17SupportsOperationC2ENS_10SourceSpanENS_10SharedImplINS_17SupportsConditionEEES4_NS0_7OperandE
_sass.abi3.so:_ZN4Sass17SupportsOperationC2EPKS0_
_sass.abi3.so:_ZN4Sass17conversion_factorENS_8UnitTypeES0_NS_9UnitClassES1_
_sass.abi3.so:_ZN4Sass17conversion_factorERKNSt7__cxx1112basic_stringIcSt11char_traitsIcESaIcEEES7_
_sass.abi3.so:_ZN4Sass17free_string_arrayEPPc
_sass.abi3.so:_ZN4Sass17register_functionERNS_7ContextEPKcPFPNS_8PreValueERNS_11EnvironmentINS_10SharedImplINS_8AST_NodeEEEEESB_S1_S3_NS_10SourceSpanERSt6vectorINS_9BacktraceESaISE_EESD_INS7_INS_12SelectorListEEESaISJ_EESL_EPSA_
_sass.abi3.so:_ZN4Sass17register_functionERNS_7ContextEPKcPFPNS_8PreValueERNS_11EnvironmentINS_10SharedImplINS_8AST_NodeEEEEESB_S1_S3_NS_10SourceSpanERSt6vectorINS_9BacktraceESaISE_EESD_INS7_INS_12SelectorListEEESaISJ_EESL_EmPSA_
_sass.abi3.so:_ZN4Sass17sass_op_separatorE7Sass_OP
_sass.abi3.so:_ZN4Sass18SelectorCombinator13cloneChildrenEv
_sass.abi3.so:_ZN4Sass18SelectorCombinatorC1ENS_10SourceSpanENS0_10CombinatorEb
_sass.abi3.so:_ZN4Sass18SelectorCombinatorC1EPKS0_
_sass.abi3.so:_ZN4Sass18SelectorCombinatorC2ENS_10SourceSpanENS0_10CombinatorEb
_sass.abi3.so:_ZN4Sass18SelectorCombinatorC2EPKS0_
_sass.abi3.so:_ZN4Sass18cmpSimpleSelectorsEPNS_14SimpleSelectorES1_
_sass.abi3.so:_ZN4Sass18listIsSuperslectorERKSt6vectorINS_10SharedImplINS_15ComplexSelectorEEESaIS3_EES7_
_sass.abi3.so:_ZN4Sass19PlaceholderSelector15has_placeholderEv
_sass.abi3.so:_ZN4Sass19PlaceholderSelectorC1ENS_10SourceSpanENSt7__cxx1112basic_stringIcSt11char_traitsIcESaIcEEE
_sass.abi3.so:_ZN4Sass19PlaceholderSelectorC1EPKS0_
_sass.abi3.so:_ZN4Sass19PlaceholderSelectorC2ENS_10SourceSpanENSt7__cxx1112basic_stringIcSt11char_traitsIcESaIcEEE
_sass.abi3.so:_ZN4Sass19PlaceholderSelectorC2EPKS0_
_sass.abi3.so:_ZN4Sass19Remove_Placeholders19remove_placeholdersEPNS_12SelectorListE
_sass.abi3.so:_ZN4Sass19Remove_Placeholders19remove_placeholdersEPNS_14SimpleSelectorE
_sass.abi3.so:_ZN4Sass19Remove_Placeholders19remove_placeholdersEPNS_15ComplexSelectorE
_sass.abi3.so:_ZN4Sass19Remove_Placeholders19remove_placeholdersEPNS_16CompoundSelectorE
_sass.abi3.so:_ZN4Sass19Remove_PlaceholdersC1Ev
_sass.abi3.so:_ZN4Sass19Remove_PlaceholdersC2Ev
_sass.abi3.so:_ZN4Sass19Remove_PlaceholdersclEPNS_12CssMediaRuleE
_sass.abi3.so:_ZN4Sass19Remove_PlaceholdersclEPNS_12SupportsRuleE
_sass.abi3.so:_ZN4Sass19Remove_PlaceholdersclEPNS_5BlockE
_sass.abi3.so:_ZN4Sass19Remove_PlaceholdersclEPNS_6AtRuleE
_sass.abi3.so:_ZN4Sass19Remove_PlaceholdersclEPNS_9StyleRuleE
_sass.abi3.so:_ZN4Sass19SupportsDeclarationC1ENS_10SourceSpanENS_10SharedImplINS_10ExpressionEEES4_
_sass.abi3.so:_ZN4Sass19SupportsDeclarationC1EPKS0_
_sass.abi3.so:_ZN4Sass19SupportsDeclarationC2ENS_10SourceSpanENS_10SharedImplINS_10ExpressionEEES4_
_sass.abi3.so:_ZN4Sass19SupportsDeclarationC2EPKS0_
_sass.abi3.so:_ZN4Sass19deprecated_functionENSt7__cxx1112basic_stringIcSt11char_traitsIcESaIcEEENS_10SourceSpanE
_sass.abi3.so:_ZN4Sass19register_c_functionERNS_7ContextEPNS_11EnvironmentINS_10SharedImplINS_8AST_NodeEEEEEP13Sass_Function
_sass.abi3.so:_ZN4Sass19selectorPseudoNamedENS_10SharedImplINS_16CompoundSelectorEEENSt7__cxx1112basic_stringIcSt11char_traitsIcESaIcEEE
_sass.abi3.so:_ZN4Sass20make_native_functionEPKcPFPNS_8PreValueERNS_11EnvironmentINS_10SharedImplINS_8AST_NodeEEEEES9_RNS_7ContextES1_NS_10SourceSpanERSt6vectorINS_9BacktraceESaISE_EESD_INS5_INS_12SelectorListEEESaISJ_EESL_ESB_
_sass.abi3.so:_ZN4Sass20register_c_functionsERNS_7ContextEPNS_11EnvironmentINS_10SharedImplINS_8AST_NodeEEEEEPP13Sass_Function
_sass.abi3.so:_ZN4Sass21detect_best_quotemarkEPKcc
_sass.abi3.so:_ZN4Sass21mergeFinalCombinatorsERSt6vectorINS_10SharedImplINS_17SelectorComponentEEESaIS3_EES6_RS0_IS0_IS5_SaIS5_EESaIS8_EE
_sass.abi3.so:_ZN4Sass21simpleIsSuperselectorERKNS_10SharedImplINS_14SimpleSelectorEEES4_
_sass.abi3.so:_ZN4Sass22Media_Query_ExpressionC1ENS_10SourceSpanENS_10SharedImplINS_10ExpressionEEES4_b
_sass.abi3.so:_ZN4Sass22Media_Query_ExpressionC1EPKS0_
_sass.abi3.so:_ZN4Sass22Media_Query_ExpressionC2ENS_10SourceSpanENS_10SharedImplINS_10ExpressionEEES4_b
_sass.abi3.so:_ZN4Sass22Media_Query_ExpressionC2EPKS0_
_sass.abi3.so:_ZN4Sass22Supports_InterpolationC1ENS_10SourceSpanENS_10SharedImplINS_10ExpressionEEE
_sass.abi3.so:_ZN4Sass22Supports_InterpolationC1EPKS0_
_sass.abi3.so:_ZN4Sass22Supports_InterpolationC2ENS_10SourceSpanENS_10SharedImplINS_10ExpressionEEE
_sass.abi3.so:_ZN4Sass22Supports_InterpolationC2EPKS0_
_sass.abi3.so:_ZN4Sass22ast_node_to_sass_valueEPKNS_10ExpressionE
_sass.abi3.so:_ZN4Sass22complexIsSuperselectorERKSt6vectorINS_10SharedImplINS_17SelectorComponentEEESaIS3_EES7_
_sass.abi3.so:_ZN4Sass22register_overload_stubERNS_7ContextENSt7__cxx1112basic_stringIcSt11char_traitsIcESaIcEEEPNS_11EnvironmentINS_10SharedImplINS_8AST_NodeEEEEE
_sass.abi3.so:_ZN4Sass22sass_value_to_ast_nodeEPK10Sass_Value
_sass.abi3.so:_ZN4Sass23compoundIsSuperselectorERKNS_10SharedImplINS_16CompoundSelectorEEES4_N9__gnu_cxx17__normal_iteratorIPKNS0_INS_17SelectorComponentEEESt6vectorIS8_SaIS8_EEEESE_
_sass.abi3.so:_ZN4Sass23compoundIsSuperselectorERKNS_10SharedImplINS_16CompoundSelectorEEES4_RKSt6vectorINS0_INS_17SelectorComponentEEESaIS7_EE
_sass.abi3.so:_ZN4Sass23mergeInitialCombinatorsERSt6vectorINS_10SharedImplINS_17SelectorComponentEEESaIS3_EES6_S6_
_sass.abi3.so:_ZN4Sass23size_conversion_factorsE
_sass.abi3.so:_ZN4Sass23time_conversion_factorsE
_sass.abi3.so:_ZN4Sass24angle_conversion_factorsE
_sass.abi3.so:_ZN4Sass24cmpChunkForEmptySequenceERKSt6vectorIS0_INS_10SharedImplINS_17SelectorComponentEEESaIS3_EESaIS5_EERKS5_
_sass.abi3.so:_ZN4Sass25comment_to_compact_stringERKNSt7__cxx1112basic_stringIcSt11char_traitsIcESaIcEEE
_sass.abi3.so:_ZN4Sass27idIsSuperselectorOfCompoundERKNS_10SharedImplINS_10IDSelectorEEERKNS0_INS_16CompoundSelectorEEE
_sass.abi3.so:_ZN4Sass27register_built_in_functionsERNS_7ContextEPNS_11EnvironmentINS_10SharedImplINS_8AST_NodeEEEEE
_sass.abi3.so:_ZN4Sass28complexIsParentSuperselectorERKSt6vectorINS_10SharedImplINS_17SelectorComponentEEESaIS3_EES7_
_sass.abi3.so:_ZN4Sass28frequency_conversion_factorsE
_sass.abi3.so:_ZN4Sass29listHasSuperslectorForComplexESt6vectorINS_10SharedImplINS_15ComplexSelectorEEESaIS3_EES3_
_sass.abi3.so:_ZN4Sass29pseudoIsSuperselectorOfPseudoERKNS_10SharedImplINS_14PseudoSelectorEEES4_RKNS0_INS_15ComplexSelectorEEE
_sass.abi3.so:_ZN4Sass29resolution_conversion_factorsE
_sass.abi3.so:_ZN4Sass29selectorPseudoIsSuperselectorERKNS_10SharedImplINS_14PseudoSelectorEEERKNS0_INS_16CompoundSelectorEEEN9__gnu_cxx17__normal_iteratorIPKNS0_INS_17SelectorComponentEEESt6vectorISC_SaISC_EEEESI_
_sass.abi3.so:_ZN4Sass29typeIsSuperselectorOfCompoundERKNS_10SharedImplINS_12TypeSelectorEEERKNS0_INS_16CompoundSelectorEEE
_sass.abi3.so:_ZN4Sass2If11has_contentEv
_sass.abi3.so:_ZN4Sass2IfC1ENS_10SourceSpanENS_10SharedImplINS_10ExpressionEEENS2_INS_5BlockEEES6_
_sass.abi3.so:_ZN4Sass2IfC1EPKS0_
_sass.abi3.so:_ZN4Sass2IfC2ENS_10SourceSpanENS_10SharedImplINS_10ExpressionEEENS2_INS_5BlockEEES6_
_sass.abi3.so:_ZN4Sass2IfC2EPKS0_
_sass.abi3.so:_ZN4Sass30cmpChunkForParentSuperselectorERKSt6vectorIS0_INS_10SharedImplINS_17SelectorComponentEEESaIS3_EESaIS5_EERKS5_
_sass.abi3.so:_ZN4Sass31simpleIsSuperselectorOfCompoundERKNS_10SharedImplINS_14SimpleSelectorEEERKNS0_INS_16CompoundSelectorEEE
_sass.abi3.so:_ZN4Sass34pseudoNotIsSuperselectorOfCompoundERKNS_10SharedImplINS_14PseudoSelectorEEERKNS0_INS_16CompoundSelectorEEERKNS0_INS_15ComplexSelectorEEE
_sass.abi3.so:_ZN4Sass3Map7to_listERNS_10SourceSpanE
_sass.abi3.so:_ZN4Sass3MapC1ENS_10SourceSpanEm
_sass.abi3.so:_ZN4Sass3MapC1EPKS0_
_sass.abi3.so:_ZN4Sass3MapC2ENS_10SourceSpanEm
_sass.abi3.so:_ZN4Sass3MapC2EPKS0_
_sass.abi3.so:_ZN4Sass4CastINS_10ExpressionEEEPKT_PKNS_8AST_NodeE
_sass.abi3.so:_ZN4Sass4CastINS_10ExpressionEEEPT_PNS_8AST_NodeE
_sass.abi3.so:_ZN4Sass4CastINS_14SimpleSelectorEEEPKT_PKNS_8AST_NodeE
_sass.abi3.so:_ZN4Sass4CastINS_14SimpleSelectorEEEPT_PNS_8AST_NodeE
_sass.abi3.so:_ZN4Sass4CastINS_15ParentStatementEEEPKT_PKNS_8AST_NodeE
_sass.abi3.so:_ZN4Sass4CastINS_15ParentStatementEEEPT_PNS_8AST_NodeE
_sass.abi3.so:_ZN4Sass4CastINS_15String_ConstantEEEPKT_PKNS_8AST_NodeE
_sass.abi3.so:_ZN4Sass4CastINS_15String_ConstantEEEPT_PNS_8AST_NodeE
_sass.abi3.so:_ZN4Sass4CastINS_17SelectorComponentEEEPKT_PKNS_8AST_NodeE
_sass.abi3.so:_ZN4Sass4CastINS_17SelectorComponentEEEPT_PNS_8AST_NodeE
_sass.abi3.so:_ZN4Sass4CastINS_17SupportsConditionEEEPKT_PKNS_8AST_NodeE
_sass.abi3.so:_ZN4Sass4CastINS_17SupportsConditionEEEPT_PNS_8AST_NodeE
_sass.abi3.so:_ZN4Sass4CastINS_4ListEEEPKT_PKNS_8AST_NodeE
_sass.abi3.so:_ZN4Sass4CastINS_4ListEEEPT_PNS_8AST_NodeE
_sass.abi3.so:_ZN4Sass4CastINS_5ColorEEEPKT_PKNS_8AST_NodeE
_sass.abi3.so:_ZN4Sass4CastINS_5ColorEEEPT_PNS_8AST_NodeE
_sass.abi3.so:_ZN4Sass4CastINS_5ValueEEEPKT_PKNS_8AST_NodeE
_sass.abi3.so:_ZN4Sass4CastINS_5ValueEEEPT_PNS_8AST_NodeE
_sass.abi3.so:_ZN4Sass4CastINS_6StringEEEPKT_PKNS_8AST_NodeE
_sass.abi3.so:_ZN4Sass4CastINS_6StringEEEPT_PNS_8AST_NodeE
_sass.abi3.so:_ZN4Sass4CastINS_8AST_NodeEEEPKT_PKS1_
_sass.abi3.so:_ZN4Sass4CastINS_8AST_NodeEEEPT_PS1_
_sass.abi3.so:_ZN4Sass4CastINS_8PreValueEEEPKT_PKNS_8AST_NodeE
_sass.abi3.so:_ZN4Sass4CastINS_8PreValueEEEPT_PNS_8AST_NodeE
_sass.abi3.so:_ZN4Sass4CastINS_8SelectorEEEPKT_PKNS_8AST_NodeE
_sass.abi3.so:_ZN4Sass4CastINS_8SelectorEEEPT_PNS_8AST_NodeE
_sass.abi3.so:_ZN4Sass4CastINS_9StatementEEEPKT_PKNS_8AST_NodeE
_sass.abi3.so:_ZN4Sass4CastINS_9StatementEEEPT_PNS_8AST_NodeE
_sass.abi3.so:_ZN4Sass4Eval11environmentEv
_sass.abi3.so:_ZN4Sass4Eval12callee_stackEv
_sass.abi3.so:_ZN4Sass4Eval13interpolationERNS_7ContextERNSt7__cxx1112basic_stringIcSt11char_traitsIcESaIcEEENS_10SharedImplINS_10ExpressionEEEbb
_sass.abi3.so:_ZN4Sass4Eval3cwdB5cxx11Ev
_sass.abi3.so:_ZN4Sass4Eval7optionsEv
_sass.abi3.so:_ZN4Sass4Eval8compilerEv
_sass.abi3.so:_ZN4Sass4Eval9env_stackEv
_sass.abi3.so:_ZN4Sass4EvalC1ERNS_6ExpandE
_sass.abi3.so:_ZN4Sass4EvalC2ERNS_6ExpandE
_sass.abi3.so:_ZN4Sass4EvalD1Ev
_sass.abi3.so:_ZN4Sass4EvalD2Ev
_sass.abi3.so:_ZN4Sass4EvalclEPNS_10AssignmentE
_sass.abi3.so:_ZN4Sass4EvalclEPNS_10Color_HSLAE
_sass.abi3.so:_ZN4Sass4EvalclEPNS_10Color_RGBAE
_sass.abi3.so:_ZN4Sass4EvalclEPNS_11Media_QueryE
_sass.abi3.so:_ZN4Sass4EvalclEPNS_11WarningRuleE
_sass.abi3.so:_ZN4Sass4EvalclEPNS_12SelectorListE
_sass.abi3.so:_ZN4Sass4EvalclEPNS_13At_Root_QueryE
_sass.abi3.so:_ZN4Sass4EvalclEPNS_13Function_CallE
_sass.abi3.so:_ZN4Sass4EvalclEPNS_13String_QuotedE
_sass.abi3.so:_ZN4Sass4EvalclEPNS_13String_SchemaE
_sass.abi3.so:_ZN4Sass4EvalclEPNS_14PseudoSelectorE
_sass.abi3.so:_ZN4Sass4EvalclEPNS_14SimpleSelectorE
_sass.abi3.so:_ZN4Sass4EvalclEPNS_15ComplexSelectorE
_sass.abi3.so:_ZN4Sass4EvalclEPNS_15Selector_SchemaE
_sass.abi3.so:_ZN4Sass4EvalclEPNS_15String_ConstantE
_sass.abi3.so:_ZN4Sass4EvalclEPNS_16CompoundSelectorE
_sass.abi3.so:_ZN4Sass4EvalclEPNS_16Parent_ReferenceE
_sass.abi3.so:_ZN4Sass4EvalclEPNS_16SupportsNegationE
_sass.abi3.so:_ZN4Sass4EvalclEPNS_16Unary_ExpressionE
_sass.abi3.so:_ZN4Sass4EvalclEPNS_17Binary_ExpressionE
_sass.abi3.so:_ZN4Sass4EvalclEPNS_17SelectorComponentE
_sass.abi3.so:_ZN4Sass4EvalclEPNS_17SupportsOperationE
_sass.abi3.so:_ZN4Sass4EvalclEPNS_19SupportsDeclarationE
_sass.abi3.so:_ZN4Sass4EvalclEPNS_22Media_Query_ExpressionE
_sass.abi3.so:_ZN4Sass4EvalclEPNS_22Supports_InterpolationE
_sass.abi3.so:_ZN4Sass4EvalclEPNS_2IfE
_sass.abi3.so:_ZN4Sass4EvalclEPNS_3MapE
_sass.abi3.so:_ZN4Sass4EvalclEPNS_4ListE
_sass.abi3.so:_ZN4Sass4EvalclEPNS_4NullE
_sass.abi3.so:_ZN4Sass4EvalclEPNS_5BlockE
_sass.abi3.so:_ZN4Sass4EvalclEPNS_6NumberE
_sass.abi3.so:_ZN4Sass4EvalclEPNS_6ReturnE
_sass.abi3.so:_ZN4Sass4EvalclEPNS_7BooleanE
_sass.abi3.so:_ZN4Sass4EvalclEPNS_7CommentE
_sass.abi3.so:_ZN4Sass4EvalclEPNS_7ForRuleE
_sass.abi3.so:_ZN4Sass4EvalclEPNS_8ArgumentE
_sass.abi3.so:_ZN4Sass4EvalclEPNS_8EachRuleE
_sass.abi3.so:_ZN4Sass4EvalclEPNS_8VariableE
_sass.abi3.so:_ZN4Sass4EvalclEPNS_9ArgumentsE
_sass.abi3.so:_ZN4Sass4EvalclEPNS_9DebugRuleE
_sass.abi3.so:_ZN4Sass4EvalclEPNS_9ErrorRuleE
_sass.abi3.so:_ZN4Sass4EvalclEPNS_9WhileRuleE
_sass.abi3.so:_ZN4Sass4File10find_filesERKNSt7__cxx1112basic_stringIcSt11char_traitsIcESaIcEEEP13Sass_Compiler
_sass.abi3.so:_ZN4Sass4File10find_filesERKNSt7__cxx1112basic_stringIcSt11char_traitsIcESaIcEEESt6vectorIS6_SaIS6_EE
_sass.abi3.so:_ZN4Sass4File10join_pathsENSt7__cxx1112basic_stringIcSt11char_traitsIcESaIcEEES6_
_sass.abi3.so:_ZN4Sass4File11file_existsERKNSt7__cxx1112basic_stringIcSt11char_traitsIcESaIcEEE
_sass.abi3.so:_ZN4Sass4File12find_includeERKNSt7__cxx1112basic_stringIcSt11char_traitsIcESaIcEEESt6vectorIS6_SaIS6_EE
_sass.abi3.so:_ZN4Sass4File15split_path_listB5cxx11EPKc
_sass.abi3.so:_ZN4Sass4File16is_absolute_pathERKNSt7__cxx1112basic_stringIcSt11char_traitsIcESaIcEEE
_sass.abi3.so:_ZN4Sass4File16path_for_consoleERKNSt7__cxx1112basic_stringIcSt11char_traitsIcESaIcEEES8_S8_
_sass.abi3.so:_ZN4Sass4File16resolve_includesERKNSt7__cxx1112basic_stringIcSt11char_traitsIcESaIcEEES8_RKSt6vectorIS6_SaIS6_EE
_sass.abi3.so:_ZN4Sass4File19make_canonical_pathENSt7__cxx1112basic_stringIcSt11char_traitsIcESaIcEEE
_sass.abi3.so:_ZN4Sass4File7abs2relERKNSt7__cxx1112basic_stringIcSt11char_traitsIcESaIcEEES8_S8_
_sass.abi3.so:_ZN4Sass4File7get_cwdB5cxx11Ev
_sass.abi3.so:_ZN4Sass4File7rel2absERKNSt7__cxx1112basic_stringIcSt11char_traitsIcESaIcEEES8_S8_
_sass.abi3.so:_ZN4Sass4File8dir_nameERKNSt7__cxx1112basic_stringIcSt11char_traitsIcESaIcEEE
_sass.abi3.so:_ZN4Sass4File9base_nameERKNSt7__cxx1112basic_stringIcSt11char_traitsIcESaIcEEE
_sass.abi3.so:_ZN4Sass4File9find_fileERKNSt7__cxx1112basic_stringIcSt11char_traitsIcESaIcEEESt6vectorIS6_SaIS6_EE
_sass.abi3.so:_ZN4Sass4File9read_fileERKNSt7__cxx1112basic_stringIcSt11char_traitsIcESaIcEEE
_sass.abi3.so:_ZN4Sass4List11set_delayedEb
_sass.abi3.so:_ZN4Sass4List14value_at_indexEm
_sass.abi3.so:_ZN4Sass4ListC1ENS_10SourceSpanEm14Sass_Separatorbb
_sass.abi3.so:_ZN4Sass4ListC1EPKS0_
_sass.abi3.so:_ZN4Sass4ListC2ENS_10SourceSpanEm14Sass_Separatorbb
_sass.abi3.so:_ZN4Sass4ListC2EPKS0_
_sass.abi3.so:_ZN4Sass4NullC1ENS_10SourceSpanE
_sass.abi3.so:_ZN4Sass4NullC1EPKS0_
_sass.abi3.so:_ZN4Sass4NullC2ENS_10SourceSpanE
_sass.abi3.so:_ZN4Sass4NullC2EPKS0_
_sass.abi3.so:_ZN4Sass4Util11isPrintableENS_10SharedImplINS_5BlockEEE17Sass_Output_Style
_sass.abi3.so:_ZN4Sass4Util11isPrintableEPNS_11DeclarationE17Sass_Output_Style
_sass.abi3.so:_ZN4Sass4Util11isPrintableEPNS_12CssMediaRuleE17Sass_Output_Style
_sass.abi3.so:_ZN4Sass4Util11isPrintableEPNS_12SupportsRuleE17Sass_Output_Style
_sass.abi3.so:_ZN4Sass4Util11isPrintableEPNS_13String_QuotedE17Sass_Output_Style
_sass.abi3.so:_ZN4Sass4Util11isPrintableEPNS_15String_ConstantE17Sass_Output_Style
_sass.abi3.so:_ZN4Sass4Util11isPrintableEPNS_7CommentE17Sass_Output_Style
_sass.abi3.so:_ZN4Sass4Util11isPrintableEPNS_9StyleRuleE17Sass_Output_Style
_sass.abi3.so:_ZN4Sass4Util13equalsLiteralEPKcRKNSt7__cxx1112basic_stringIcSt11char_traitsIcESaIcEEE
_sass.abi3.so:_ZN4Sass4Util17ascii_str_tolowerEPNSt7__cxx1112basic_stringIcSt11char_traitsIcESaIcEEE
_sass.abi3.so:_ZN4Sass4Util17ascii_str_toupperEPNSt7__cxx1112basic_stringIcSt11char_traitsIcESaIcEEE
_sass.abi3.so:_ZN4Sass4Util18normalize_decimalsERKNSt7__cxx1112basic_stringIcSt11char_traitsIcESaIcEEE
_sass.abi3.so:_ZN4Sass4Util18normalize_newlinesERKNSt7__cxx1112basic_stringIcSt11char_traitsIcESaIcEEE
_sass.abi3.so:_ZN4Sass4Util19closing_bracket_forEc
_sass.abi3.so:_ZN4Sass4Util19opening_bracket_forEc
_sass.abi3.so:_ZN4Sass4Util21normalize_underscoresERKNSt7__cxx1112basic_stringIcSt11char_traitsIcESaIcEEE
_sass.abi3.so:_ZN4Sass4Util5rtrimENSt7__cxx1112basic_stringIcSt11char_traitsIcESaIcEEE
_sass.abi3.so:_ZN4Sass4Util8unvendorERKNSt7__cxx1112basic_stringIcSt11char_traitsIcESaIcEEE
_sass.abi3.so:_ZN4Sass4bindENSt7__cxx1112basic_stringIcSt11char_traitsIcESaIcEEES5_NS_10SharedImplINS_10ParametersEEENS6_INS_9ArgumentsEEEPNS_11EnvironmentINS6_INS_8AST_NodeEEEEEPNS_4EvalERSt6vectorINS_9BacktraceESaISJ_EE
_sass.abi3.so:_ZN4Sass4warnENSt7__cxx1112basic_stringIcSt11char_traitsIcESaIcEEENS_10SourceSpanE
_sass.abi3.so:_ZN4Sass4warnENSt7__cxx1112basic_stringIcSt11char_traitsIcESaIcEEENS_10SourceSpanEPNS_9BacktraceE
_sass.abi3.so:_ZN4Sass5AST2CclEPNS_10Color_HSLAE
_sass.abi3.so:_ZN4Sass5AST2CclEPNS_10Color_RGBAE
_sass.abi3.so:_ZN4Sass5AST2CclEPNS_12Custom_ErrorE
_sass.abi3.so:_ZN4Sass5AST2CclEPNS_13String_QuotedE
_sass.abi3.so:_ZN4Sass5AST2CclEPNS_14Custom_WarningE
_sass.abi3.so:_ZN4Sass5AST2CclEPNS_15String_ConstantE
_sass.abi3.so:_ZN4Sass5AST2CclEPNS_3MapE
_sass.abi3.so:_ZN4Sass5AST2CclEPNS_4ListE
_sass.abi3.so:_ZN4Sass5AST2CclEPNS_4NullE
_sass.abi3.so:_ZN4Sass5AST2CclEPNS_6NumberE
_sass.abi3.so:_ZN4Sass5AST2CclEPNS_7BooleanE
_sass.abi3.so:_ZN4Sass5AST2CclEPNS_8ArgumentE
_sass.abi3.so:_ZN4Sass5AST2CclEPNS_9ArgumentsE
_sass.abi3.so:_ZN4Sass5Block11has_contentEv
_sass.abi3.so:_ZN4Sass5BlockC1ENS_10SourceSpanEmb
_sass.abi3.so:_ZN4Sass5BlockC1EPKS0_
_sass.abi3.so:_ZN4Sass5BlockC2ENS_10SourceSpanEmb
_sass.abi3.so:_ZN4Sass5BlockC2EPKS0_
_sass.abi3.so:_ZN4Sass5ColorC1ENS_10SourceSpanEdNSt7__cxx1112basic_stringIcSt11char_traitsIcESaIcEEE
_sass.abi3.so:_ZN4Sass5ColorC1EPKS0_
_sass.abi3.so:_ZN4Sass5ColorC2ENS_10SourceSpanEdNSt7__cxx1112basic_stringIcSt11char_traitsIcESaIcEEE
_sass.abi3.so:_ZN4Sass5ColorC2EPKS0_
_sass.abi3.so:_ZN4Sass5TraceC1ENS_10SourceSpanENSt7__cxx1112basic_stringIcSt11char_traitsIcESaIcEEENS_10SharedImplINS_5BlockEEEc
_sass.abi3.so:_ZN4Sass5TraceC1EPKS0_
_sass.abi3.so:_ZN4Sass5TraceC2ENS_10SourceSpanENSt7__cxx1112basic_stringIcSt11char_traitsIcESaIcEEENS_10SharedImplINS_5BlockEEEc
_sass.abi3.so:_ZN4Sass5TraceC2EPKS0_
_sass.abi3.so:_ZN4Sass5UTF_815normalize_indexEim
_sass.abi3.so:_ZN4Sass5UTF_816code_point_countERKNSt7__cxx1112basic_stringIcSt11char_traitsIcESaIcEEE
_sass.abi3.so:_ZN4Sass5UTF_816code_point_countERKNSt7__cxx1112basic_stringIcSt11char_traitsIcESaIcEEEmm
_sass.abi3.so:_ZN4Sass5UTF_818offset_at_positionERKNSt7__cxx1112basic_stringIcSt11char_traitsIcESaIcEEEm
_sass.abi3.so:_ZN4Sass5UTF_825code_point_size_at_offsetERKNSt7__cxx1112basic_stringIcSt11char_traitsIcESaIcEEEm
_sass.abi3.so:_ZN4Sass5Units6reduceEv
_sass.abi3.so:_ZN4Sass5Units9normalizeEv
_sass.abi3.so:_ZN4Sass5ValueC1ENS_10SourceSpanEbbbNS_10Expression4TypeE
_sass.abi3.so:_ZN4Sass5ValueC1EPKS0_
_sass.abi3.so:_ZN4Sass5ValueC2ENS_10SourceSpanEbbbNS_10Expression4TypeE
_sass.abi3.so:_ZN4Sass5ValueC2EPKS0_
_sass.abi3.so:_ZN4Sass5c2astEP10Sass_ValueSt6vectorINS_9BacktraceESaIS3_EENS_10SourceSpanE
_sass.abi3.so:_ZN4Sass5errorENSt7__cxx1112basic_stringIcSt11char_traitsIcESaIcEEENS_10SourceSpanERSt6vectorINS_9BacktraceESaIS8_EE
_sass.abi3.so:_ZN4Sass5errorEPNS_8AST_NodeESt6vectorINS_9BacktraceESaIS3_EENSt7__cxx1112basic_stringIcSt11char_traitsIcESaIcEEE
_sass.abi3.so:_ZN4Sass5flushERNSt7__cxx1112basic_stringIcSt11char_traitsIcESaIcEEERNS_9converterE
_sass.abi3.so:_ZN4Sass5quoteERKNSt7__cxx1112basic_stringIcSt11char_traitsIcESaIcEEEc
_sass.abi3.so:_ZN4Sass5roundEdm
_sass.abi3.so:_ZN4Sass5rtrimERKNSt7__cxx1112basic_stringIcSt11char_traitsIcESaIcEEE
_sass.abi3.so:_ZN4Sass5weaveERKSt6vectorIS0_INS_10SharedImplINS_17SelectorComponentEEESaIS3_EESaIS5_EE
_sass.abi3.so:_ZN4Sass6AtRule12is_keyframesEv
_sass.abi3.so:_ZN4Sass6AtRule7bubblesEv
_sass.abi3.so:_ZN4Sass6AtRule8is_mediaEv
_sass.abi3.so:_ZN4Sass6AtRuleC1ENS_10SourceSpanENSt7__cxx1112basic_stringIcSt11char_traitsIcESaIcEEENS_10SharedImplINS_12SelectorListEEENS8_INS_5BlockEEENS8_INS_10ExpressionEEE
_sass.abi3.so:_ZN4Sass6AtRuleC1EPKS0_
_sass.abi3.so:_ZN4Sass6AtRuleC2ENS_10SourceSpanENSt7__cxx1112basic_stringIcSt11char_traitsIcESaIcEEENS_10SharedImplINS_12SelectorListEEENS8_INS_5BlockEEENS8_INS_10ExpressionEEE
_sass.abi3.so:_ZN4Sass6AtRuleC2EPKS0_
_sass.abi3.so:_ZN4Sass6Bubble7bubblesEv
_sass.abi3.so:_ZN4Sass6BubbleC1ENS_10SourceSpanENS_10SharedImplINS_9StatementEEES4_m
_sass.abi3.so:_ZN4Sass6BubbleC1EPKS0_
_sass.abi3.so:_ZN4Sass6BubbleC2ENS_10SourceSpanENS_10SharedImplINS_9StatementEEES4_m
_sass.abi3.so:_ZN4Sass6BubbleC2EPKS0_
_sass.abi3.so:_ZN4Sass6Colors10aquamarineE
_sass.abi3.so:_ZN4Sass6Colors10bluevioletE
_sass.abi3.so:_ZN4Sass6Colors10chartreuseE
_sass.abi3.so:_ZN4Sass6Colors10darkorangeE
_sass.abi3.so:_ZN4Sass6Colors10darkorchidE
_sass.abi3.so:_ZN4Sass6Colors10darksalmonE
_sass.abi3.so:_ZN4Sass6Colors10darkvioletE
_sass.abi3.so:_ZN4Sass6Colors10dodgerblueE
_sass.abi3.so:_ZN4Sass6Colors10ghostwhiteE
_sass.abi3.so:_ZN4Sass6Colors10lightcoralE
_sass.abi3.so:_ZN4Sass6Colors10lightgreenE
_sass.abi3.so:_ZN4Sass6Colors10mediumblueE
_sass.abi3.so:_ZN4Sass6Colors10papayawhipE
_sass.abi3.so:_ZN4Sass6Colors10powderblueE
_sass.abi3.so:_ZN4Sass6Colors10sandybrownE
_sass.abi3.so:_ZN4Sass6Colors10whitesmokeE
_sass.abi3.so:_ZN4Sass6Colors11darkmagentaE
_sass.abi3.so:_ZN4Sass6Colors11deepskyblueE
_sass.abi3.so:_ZN4Sass6Colors11floralwhiteE
_sass.abi3.so:_ZN4Sass6Colors11forestgreenE
_sass.abi3.so:_ZN4Sass6Colors11greenyellowE
_sass.abi3.so:_ZN4Sass6Colors11lightsalmonE
_sass.abi3.so:_ZN4Sass6Colors11lightyellowE
_sass.abi3.so:_ZN4Sass6Colors11navajowhiteE
_sass.abi3.so:_ZN4Sass6Colors11saddlebrownE
_sass.abi3.so:_ZN4Sass6Colors11springgreenE
_sass.abi3.so:_ZN4Sass6Colors11transparentE
_sass.abi3.so:_ZN4Sass6Colors11yellowgreenE
_sass.abi3.so:_ZN4Sass6Colors12antiquewhiteE
_sass.abi3.so:_ZN4Sass6Colors12darkseagreenE
_sass.abi3.so:_ZN4Sass6Colors12lemonchiffonE
_sass.abi3.so:_ZN4Sass6Colors12lightskyblueE
_sass.abi3.so:_ZN4Sass6Colors12mediumorchidE
_sass.abi3.so:_ZN4Sass6Colors12mediumpurpleE
_sass.abi3.so:_ZN4Sass6Colors12midnightblueE
_sass.abi3.so:_ZN4Sass6Colors13darkgoldenrodE
_sass.abi3.so:_ZN4Sass6Colors13darkslateblueE
_sass.abi3.so:_ZN4Sass6Colors13darkslategrayE
_sass.abi3.so:_ZN4Sass6Colors13darkslategreyE
_sass.abi3.so:_ZN4Sass6Colors13darkturquoiseE
_sass.abi3.so:_ZN4Sass6Colors13lavenderblushE
_sass.abi3.so:_ZN4Sass6Colors13lightseagreenE
_sass.abi3.so:_ZN4Sass6Colors13palegoldenrodE
_sass.abi3.so:_ZN4Sass6Colors13paleturquoiseE
_sass.abi3.so:_ZN4Sass6Colors13palevioletredE
_sass.abi3.so:_ZN4Sass6Colors13rebeccapurpleE
_sass.abi3.so:_ZN4Sass6Colors14blanchedalmondE
_sass.abi3.so:_ZN4Sass6Colors14cornflowerblueE
_sass.abi3.so:_ZN4Sass6Colors14darkolivegreenE
_sass.abi3.so:_ZN4Sass6Colors14lightslategrayE
_sass.abi3.so:_ZN4Sass6Colors14lightslategreyE
_sass.abi3.so:_ZN4Sass6Colors14lightsteelblueE
_sass.abi3.so:_ZN4Sass6Colors14mediumseagreenE
_sass.abi3.so:_ZN4Sass6Colors15mediumslateblueE
_sass.abi3.so:_ZN4Sass6Colors15mediumturquoiseE
_sass.abi3.so:_ZN4Sass6Colors15mediumvioletredE
_sass.abi3.so:_ZN4Sass6Colors16mediumaquamarineE
_sass.abi3.so:_ZN4Sass6Colors17mediumspringgreenE
_sass.abi3.so:_ZN4Sass6Colors20lightgoldenrodyellowE
_sass.abi3.so:_ZN4Sass6Colors3redE
_sass.abi3.so:_ZN4Sass6Colors3tanE
_sass.abi3.so:_ZN4Sass6Colors4aquaE
_sass.abi3.so:_ZN4Sass6Colors4blueE
_sass.abi3.so:_ZN4Sass6Colors4cyanE
_sass.abi3.so:_ZN4Sass6Colors4goldE
_sass.abi3.so:_ZN4Sass6Colors4grayE
_sass.abi3.so:_ZN4Sass6Colors4greyE
_sass.abi3.so:_ZN4Sass6Colors4limeE
_sass.abi3.so:_ZN4Sass6Colors4navyE
_sass.abi3.so:_ZN4Sass6Colors4peruE
_sass.abi3.so:_ZN4Sass6Colors4pinkE
_sass.abi3.so:_ZN4Sass6Colors4plumE
_sass.abi3.so:_ZN4Sass6Colors4snowE
_sass.abi3.so:_ZN4Sass6Colors4tealE
_sass.abi3.so:_ZN4Sass6Colors5azureE
_sass.abi3.so:_ZN4Sass6Colors5beigeE
_sass.abi3.so:_ZN4Sass6Colors5blackE
_sass.abi3.so:_ZN4Sass6Colors5brownE
_sass.abi3.so:_ZN4Sass6Colors5coralE
_sass.abi3.so:_ZN4Sass6Colors5greenE
_sass.abi3.so:_ZN4Sass6Colors5ivoryE
_sass.abi3.so:_ZN4Sass6Colors5khakiE
_sass.abi3.so:_ZN4Sass6Colors5linenE
_sass.abi3.so:_ZN4Sass6Colors5oliveE
_sass.abi3.so:_ZN4Sass6Colors5wheatE
_sass.abi3.so:_ZN4Sass6Colors5whiteE
_sass.abi3.so:_ZN4Sass6Colors6bisqueE
_sass.abi3.so:_ZN4Sass6Colors6indigoE
_sass.abi3.so:_ZN4Sass6Colors6maroonE
_sass.abi3.so:_ZN4Sass6Colors6orangeE
_sass.abi3.so:_ZN4Sass6Colors6orchidE
_sass.abi3.so:_ZN4Sass6Colors6purpleE
_sass.abi3.so:_ZN4Sass6Colors6salmonE
_sass.abi3.so:_ZN4Sass6Colors6siennaE
_sass.abi3.so:_ZN4Sass6Colors6silverE
_sass.abi3.so:_ZN4Sass6Colors6tomatoE
_sass.abi3.so:_ZN4Sass6Colors6violetE
_sass.abi3.so:_ZN4Sass6Colors6yellowE
_sass.abi3.so:_ZN4Sass6Colors7crimsonE
_sass.abi3.so:_ZN4Sass6Colors7darkredE
_sass.abi3.so:_ZN4Sass6Colors7dimgrayE
_sass.abi3.so:_ZN4Sass6Colors7dimgreyE
_sass.abi3.so:_ZN4Sass6Colors7fuchsiaE
_sass.abi3.so:_ZN4Sass6Colors7hotpinkE
_sass.abi3.so:_ZN4Sass6Colors7magentaE
_sass.abi3.so:_ZN4Sass6Colors7oldlaceE
_sass.abi3.so:_ZN4Sass6Colors7skyblueE
_sass.abi3.so:_ZN4Sass6Colors7thistleE
_sass.abi3.so:_ZN4Sass6Colors8cornsilkE
_sass.abi3.so:_ZN4Sass6Colors8darkblueE
_sass.abi3.so:_ZN4Sass6Colors8darkcyanE
_sass.abi3.so:_ZN4Sass6Colors8darkgrayE
_sass.abi3.so:_ZN4Sass6Colors8darkgreyE
_sass.abi3.so:_ZN4Sass6Colors8deeppinkE
_sass.abi3.so:_ZN4Sass6Colors8honeydewE
_sass.abi3.so:_ZN4Sass6Colors8lavenderE
_sass.abi3.so:_ZN4Sass6Colors8moccasinE
_sass.abi3.so:_ZN4Sass6Colors8seagreenE
_sass.abi3.so:_ZN4Sass6Colors8seashellE
_sass.abi3.so:_ZN4Sass6Colors9aliceblueE
_sass.abi3.so:_ZN4Sass6Colors9burlywoodE
_sass.abi3.so:_ZN4Sass6Colors9cadetblueE
_sass.abi3.so:_ZN4Sass6Colors9chocolateE
_sass.abi3.so:_ZN4Sass6Colors9darkgreenE
_sass.abi3.so:_ZN4Sass6Colors9darkkhakiE
_sass.abi3.so:_ZN4Sass6Colors9firebrickE
_sass.abi3.so:_ZN4Sass6Colors9gainsboroE
_sass.abi3.so:_ZN4Sass6Colors9goldenrodE
_sass.abi3.so:_ZN4Sass6Colors9indianredE
_sass.abi3.so:_ZN4Sass6Colors9lawngreenE
_sass.abi3.so:_ZN4Sass6Colors9lightblueE
_sass.abi3.so:_ZN4Sass6Colors9lightcyanE
_sass.abi3.so:_ZN4Sass6Colors9lightgrayE
_sass.abi3.so:_ZN4Sass6Colors9lightgreyE
_sass.abi3.so:_ZN4Sass6Colors9lightpinkE
_sass.abi3.so:_ZN4Sass6Colors9limegreenE
_sass.abi3.so:_ZN4Sass6Colors9mintcreamE
_sass.abi3.so:_ZN4Sass6Colors9mistyroseE
_sass.abi3.so:_ZN4Sass6Colors9olivedrabE
_sass.abi3.so:_ZN4Sass6Colors9orangeredE
_sass.abi3.so:_ZN4Sass6Colors9palegreenE
_sass.abi3.so:_ZN4Sass6Colors9peachpuffE
_sass.abi3.so:_ZN4Sass6Colors9rosybrownE
_sass.abi3.so:_ZN4Sass6Colors9royalblueE
_sass.abi3.so:_ZN4Sass6Colors9slateblueE
_sass.abi3.so:_ZN4Sass6Colors9slategrayE
_sass.abi3.so:_ZN4Sass6Colors9slategreyE
_sass.abi3.so:_ZN4Sass6Colors9steelblueE
_sass.abi3.so:_ZN4Sass6Colors9turquoiseE
_sass.abi3.so:_ZN4Sass6Cssize12append_blockEPNS_5BlockES2_
_sass.abi3.so:_ZN4Sass6Cssize15slice_by_bubbleEPNS_5BlockE
_sass.abi3.so:_ZN4Sass6Cssize6bubbleEPNS_10AtRootRuleE
_sass.abi3.so:_ZN4Sass6Cssize6bubbleEPNS_12CssMediaRuleE
_sass.abi3.so:_ZN4Sass6Cssize6bubbleEPNS_12SupportsRuleE
_sass.abi3.so:_ZN4Sass6Cssize6bubbleEPNS_6AtRuleE
_sass.abi3.so:_ZN4Sass6Cssize6parentEv
_sass.abi3.so:_ZN4Sass6Cssize7flattenEPKNS_5BlockE
_sass.abi3.so:_ZN4Sass6Cssize8debubbleEPNS_5BlockEPNS_9StatementE
_sass.abi3.so:_ZN4Sass6Cssize9bubblableEPNS_9StatementE
_sass.abi3.so:_ZN4Sass6CssizeC1ERNS_7ContextE
_sass.abi3.so:_ZN4Sass6CssizeC2ERNS_7ContextE
_sass.abi3.so:_ZN4Sass6CssizeclEPNS_10AtRootRuleE
_sass.abi3.so:_ZN4Sass6CssizeclEPNS_11DeclarationE
_sass.abi3.so:_ZN4Sass6CssizeclEPNS_12CssMediaRuleE
_sass.abi3.so:_ZN4Sass6CssizeclEPNS_12SupportsRuleE
_sass.abi3.so:_ZN4Sass6CssizeclEPNS_13Keyframe_RuleE
_sass.abi3.so:_ZN4Sass6CssizeclEPNS_4NullE
_sass.abi3.so:_ZN4Sass6CssizeclEPNS_5BlockE
_sass.abi3.so:_ZN4Sass6CssizeclEPNS_5TraceE
_sass.abi3.so:_ZN4Sass6CssizeclEPNS_6AtRuleE
_sass.abi3.so:_ZN4Sass6CssizeclEPNS_9StyleRuleE
_sass.abi3.so:_ZN4Sass6Expand11environmentEv
_sass.abi3.so:_ZN4Sass6Expand15popNullSelectorEv
_sass.abi3.so:_ZN4Sass6Expand16getOriginalStackEv
_sass.abi3.so:_ZN4Sass6Expand16getSelectorStackEv
_sass.abi3.so:_ZN4Sass6Expand16pushNullSelectorEv
_sass.abi3.so:_ZN4Sass6Expand17mergeMediaQueriesERKSt6vectorINS_10SharedImplINS_13CssMediaQueryEEESaIS4_EES8_
_sass.abi3.so:_ZN4Sass6Expand19pushToOriginalStackENS_10SharedImplINS_12SelectorListEEE
_sass.abi3.so:_ZN4Sass6Expand19pushToSelectorStackENS_10SharedImplINS_12SelectorListEEE
_sass.abi3.so:_ZN4Sass6Expand20popFromOriginalStackEv
_sass.abi3.so:_ZN4Sass6Expand20popFromSelectorStackEv
_sass.abi3.so:_ZN4Sass6Expand8originalEv
_sass.abi3.so:_ZN4Sass6Expand8selectorEv
_sass.abi3.so:_ZN4Sass6ExpandC1ERNS_7ContextEPNS_11EnvironmentINS_10SharedImplINS_8AST_NodeEEEEEPSt6vectorINS4_INS_12SelectorListEEESaISB_EESE_
_sass.abi3.so:_ZN4Sass6ExpandC2ERNS_7ContextEPNS_11EnvironmentINS_10SharedImplINS_8AST_NodeEEEEEPSt6vectorINS4_INS_12SelectorListEEESaISB_EESE_
_sass.abi3.so:_ZN4Sass6ExpandclEPNS_10AssignmentE
_sass.abi3.so:_ZN4Sass6ExpandclEPNS_10AtRootRuleE
_sass.abi3.so:_ZN4Sass6ExpandclEPNS_10DefinitionE
_sass.abi3.so:_ZN4Sass6ExpandclEPNS_10ExtendRuleE
_sass.abi3.so:_ZN4Sass6ExpandclEPNS_10Mixin_CallE
_sass.abi3.so:_ZN4Sass6ExpandclEPNS_11DeclarationE
_sass.abi3.so:_ZN4Sass6ExpandclEPNS_11Import_StubE
_sass.abi3.so:_ZN4Sass6ExpandclEPNS_11WarningRuleE
_sass.abi3.so:_ZN4Sass6ExpandclEPNS_12SupportsRuleE
_sass.abi3.so:_ZN4Sass6ExpandclEPNS_2IfE
_sass.abi3.so:_ZN4Sass6ExpandclEPNS_5BlockE
_sass.abi3.so:_ZN4Sass6ExpandclEPNS_6AtRuleE
_sass.abi3.so:_ZN4Sass6ExpandclEPNS_6ImportE
_sass.abi3.so:_ZN4Sass6ExpandclEPNS_6ReturnE
_sass.abi3.so:_ZN4Sass6ExpandclEPNS_7CommentE
_sass.abi3.so:_ZN4Sass6ExpandclEPNS_7ContentE
_sass.abi3.so:_ZN4Sass6ExpandclEPNS_7ForRuleE
_sass.abi3.so:_ZN4Sass6ExpandclEPNS_8EachRuleE
_sass.abi3.so:_ZN4Sass6ExpandclEPNS_9DebugRuleE
_sass.abi3.so:_ZN4Sass6ExpandclEPNS_9ErrorRuleE
_sass.abi3.so:_ZN4Sass6ExpandclEPNS_9MediaRuleE
_sass.abi3.so:_ZN4Sass6ExpandclEPNS_9StyleRuleE
_sass.abi3.so:_ZN4Sass6ExpandclEPNS_9WhileRuleE
_sass.abi3.so:_ZN4Sass6Import4incsEv
_sass.abi3.so:_ZN4Sass6Import4urlsEv
_sass.abi3.so:_ZN4Sass6ImportC1ENS_10SourceSpanE
_sass.abi3.so:_ZN4Sass6ImportC1EPKS0_
_sass.abi3.so:_ZN4Sass6ImportC2ENS_10SourceSpanE
_sass.abi3.so:_ZN4Sass6ImportC2EPKS0_
_sass.abi3.so:_ZN4Sass6Number6reduceEv
_sass.abi3.so:_ZN4Sass6Number9normalizeEv
_sass.abi3.so:_ZN4Sass6NumberC1ENS_10SourceSpanEdNSt7__cxx1112basic_stringIcSt11char_traitsIcESaIcEEEb
_sass.abi3.so:_ZN4Sass6NumberC1EPKS0_
_sass.abi3.so:_ZN4Sass6NumberC2ENS_10SourceSpanEdNSt7__cxx1112basic_stringIcSt11char_traitsIcESaIcEEEb
_sass.abi3.so:_ZN4Sass6NumberC2EPKS0_
_sass.abi3.so:_ZN4Sass6Offset3addEPKcS2_
_sass.abi3.so:_ZN4Sass6Offset4initEPKcS2_
_sass.abi3.so:_ZN4Sass6OffsetC1EPKc
_sass.abi3.so:_ZN4Sass6OffsetC1ERKNSt7__cxx1112basic_stringIcSt11char_traitsIcESaIcEEE
_sass.abi3.so:_ZN4Sass6OffsetC1Ec
_sass.abi3.so:_ZN4Sass6OffsetC1Emm
_sass.abi3.so:_ZN4Sass6OffsetC2EPKc
_sass.abi3.so:_ZN4Sass6OffsetC2ERKNSt7__cxx1112basic_stringIcSt11char_traitsIcESaIcEEE
_sass.abi3.so:_ZN4Sass6OffsetC2Ec
_sass.abi3.so:_ZN4Sass6OffsetC2Emm
_sass.abi3.so:_ZN4Sass6OffsetpLERKS0_
_sass.abi3.so:_ZN4Sass6Output10get_bufferEv
_sass.abi3.so:_ZN4Sass6Output13fallback_implEPNS_8AST_NodeE
_sass.abi3.so:_ZN4Sass6OutputC1ER19Sass_Output_Options
_sass.abi3.so:_ZN4Sass6OutputC2ER19Sass_Output_Options
_sass.abi3.so:_ZN4Sass6OutputD0Ev
_sass.abi3.so:_ZN4Sass6OutputD1Ev
_sass.abi3.so:_ZN4Sass6OutputD2Ev
_sass.abi3.so:_ZN4Sass6OutputclEPNS_12CssMediaRuleE
_sass.abi3.so:_ZN4Sass6OutputclEPNS_12SupportsRuleE
_sass.abi3.so:_ZN4Sass6OutputclEPNS_13Keyframe_RuleE
_sass.abi3.so:_ZN4Sass6OutputclEPNS_13String_QuotedE
_sass.abi3.so:_ZN4Sass6OutputclEPNS_15String_ConstantE
_sass.abi3.so:_ZN4Sass6OutputclEPNS_3MapE
_sass.abi3.so:_ZN4Sass6OutputclEPNS_6AtRuleE
_sass.abi3.so:_ZN4Sass6OutputclEPNS_6ImportE
_sass.abi3.so:_ZN4Sass6OutputclEPNS_6NumberE
_sass.abi3.so:_ZN4Sass6OutputclEPNS_7CommentE
_sass.abi3.so:_ZN4Sass6OutputclEPNS_9StyleRuleE
_sass.abi3.so:_ZN4Sass6Parser10parse_listEb
_sass.abi3.so:_ZN4Sass6Parser11parse_blockEb
_sass.abi3.so:_ZN4Sass6Parser11parse_debugEv
_sass.abi3.so:_ZN4Sass6Parser11parse_errorEv
_sass.abi3.so:_ZN4Sass6Parser11parse_valueEv
_sass.abi3.so:_ZN4Sass6Parser12lex_variableEv
_sass.abi3.so:_ZN4Sass6Parser12lexed_numberERKNS_10SourceSpanERKNSt7__cxx1112basic_stringIcSt11char_traitsIcESaIcEEE
_sass.abi3.so:_ZN4Sass6Parser12parse_factorEv
_sass.abi3.so:_ZN4Sass6Parser12parse_importEv
_sass.abi3.so:_ZN4Sass6Parser12parse_stringEv
_sass.abi3.so:_ZN4Sass6Parser12peek_newlineEPKc
_sass.abi3.so:_ZN4Sass6Parser13fold_operandsENS_10SharedImplINS_10ExpressionEEERSt6vectorIS3_SaIS3_EENS_7OperandE
_sass.abi3.so:_ZN4Sass6Parser13fold_operandsENS_10SharedImplINS_10ExpressionEEERSt6vectorIS3_SaIS3_EERS4_INS_7OperandESaIS8_EEm
_sass.abi3.so:_ZN4Sass6Parser13parse_rulesetE9Lookahead
_sass.abi3.so:_ZN4Sass6Parser13parse_warningEv
_sass.abi3.so:_ZN4Sass6Parser14lex_identifierEv
_sass.abi3.so:_ZN4Sass6Parser14lex_interp_uriEv
_sass.abi3.so:_ZN4Sass6Parser14parseMediaRuleEv
_sass.abi3.so:_ZN4Sass6Parser14parse_argumentEv
_sass.abi3.so:_ZN4Sass6Parser14parse_relationEv
_sass.abi3.so:_ZN4Sass6Parser14parse_selectorEPNS_10SourceDataERNS_7ContextESt6vectorINS_9BacktraceESaIS6_EEb
_sass.abi3.so:_ZN4Sass6Parser15lexed_dimensionERKNS_10SourceSpanERKNSt7__cxx1112basic_stringIcSt11char_traitsIcESaIcEEE
_sass.abi3.so:_ZN4Sass6Parser15lexed_hex_colorERKNS_10SourceSpanERKNSt7__cxx1112basic_stringIcSt11char_traitsIcESaIcEEE
_sass.abi3.so:_ZN4Sass6Parser15parseIdentifierB5cxx11Ev
_sass.abi3.so:_ZN4Sass6Parser15parse_argumentsEv
_sass.abi3.so:_ZN4Sass6Parser15parse_css_blockEb
_sass.abi3.so:_ZN4Sass6Parser15parse_directiveEv
_sass.abi3.so:_ZN4Sass6Parser15parse_operatorsEv
_sass.abi3.so:_ZN4Sass6Parser15parse_parameterEv
_sass.abi3.so:_ZN4Sass6Parser16lexed_percentageERKNS_10SourceSpanERKNSt7__cxx1112basic_stringIcSt11char_traitsIcESaIcEEE
_sass.abi3.so:_ZN4Sass6Parser16parse_assignmentEv
_sass.abi3.so:_ZN4Sass6Parser16parse_block_nodeEb
_sass.abi3.so:_ZN4Sass6Parser16parse_comma_listEb
_sass.abi3.so:_ZN4Sass6Parser16parse_definitionENS_10Definition4TypeE
_sass.abi3.so:_ZN4Sass6Parser16parse_expressionEv
_sass.abi3.so:_ZN4Sass6Parser16parse_parametersEv
_sass.abi3.so:_ZN4Sass6Parser16parse_space_listEv
_sass.abi3.so:_ZN4Sass6Parser17lex_interp_stringEv
_sass.abi3.so:_ZN4Sass6Parser17lex_interpolationEv
_sass.abi3.so:_ZN4Sass6Parser17parseSelectorListEb
_sass.abi3.so:_ZN4Sass6Parser17parse_block_nodesEb
_sass.abi3.so:_ZN4Sass6Parser17parse_conjunctionEv
_sass.abi3.so:_ZN4Sass6Parser17parse_declarationEv
_sass.abi3.so:_ZN4Sass6Parser17parse_disjunctionEv
_sass.abi3.so:_ZN4Sass6Parser17parse_ie_propertyEv
_sass.abi3.so:_ZN4Sass6Parser17parse_media_queryEv
_sass.abi3.so:_ZN4Sass6Parser18advanceToNextTokenEv
_sass.abi3.so:_ZN4Sass6Parser18parseCssMediaQueryEv
_sass.abi3.so:_ZN4Sass6Parser18parse_bracket_listEv
_sass.abi3.so:_ZN4Sass6Parser18parse_if_directiveEb
_sass.abi3.so:_ZN4Sass6Parser18parse_static_valueEv
_sass.abi3.so:_ZN4Sass6Parser18parse_value_schemaEPKc
_sass.abi3.so:_ZN4Sass6Parser19lookahead_for_valueEPKc
_sass.abi3.so:_ZN4Sass6Parser19parse_at_root_blockEv
_sass.abi3.so:_ZN4Sass6Parser19parse_at_root_queryEv
_sass.abi3.so:_ZN4Sass6Parser19parse_calc_functionEv
_sass.abi3.so:_ZN4Sass6Parser19parse_for_directiveEv
_sass.abi3.so:_ZN4Sass6Parser19parse_function_callEv
_sass.abi3.so:_ZN4Sass6Parser19parse_media_queriesEv
_sass.abi3.so:_ZN4Sass6Parser20parseComplexSelectorEb
_sass.abi3.so:_ZN4Sass6Parser20parseCssMediaQueriesEv
_sass.abi3.so:_ZN4Sass6Parser20parse_block_commentsEb
_sass.abi3.so:_ZN4Sass6Parser20parse_each_directiveEv
_sass.abi3.so:_ZN4Sass6Parser20parse_ie_keyword_argEv
_sass.abi3.so:_ZN4Sass6Parser21lookahead_for_includeEPKc
_sass.abi3.so:_ZN4Sass6Parser21parseCompoundSelectorEv
_sass.abi3.so:_ZN4Sass6Parser21parse_pseudo_selectorEv
_sass.abi3.so:_ZN4Sass6Parser21parse_selector_schemaEPKcb
_sass.abi3.so:_ZN4Sass6Parser21parse_simple_selectorEv
_sass.abi3.so:_ZN4Sass6Parser21parse_while_directiveEv
_sass.abi3.so:_ZN4Sass6Parser22lookahead_for_selectorEPKc
_sass.abi3.so:_ZN4Sass6Parser22parse_almost_any_valueEv
_sass.abi3.so:_ZN4Sass6Parser22parse_media_expressionEv
_sass.abi3.so:_ZN4Sass6Parser22parse_return_directiveEv
_sass.abi3.so:_ZN4Sass6Parser23parse_charset_directiveEv
_sass.abi3.so:_ZN4Sass6Parser23parse_content_directiveEv
_sass.abi3.so:_ZN4Sass6Parser23parse_identifier_schemaEv
_sass.abi3.so:_ZN4Sass6Parser23parse_include_directiveEv
_sass.abi3.so:_ZN4Sass6Parser23parse_negated_selector2Ev
_sass.abi3.so:_ZN4Sass6Parser23parse_supports_negationEv
_sass.abi3.so:_ZN4Sass6Parser23parse_supports_operatorEb
_sass.abi3.so:_ZN4Sass6Parser23re_attr_sensitive_closeEPKc
_sass.abi3.so:_ZN4Sass6Parser24parse_attribute_selectorEv
_sass.abi3.so:_ZN4Sass6Parser24parse_css_variable_valueEv
_sass.abi3.so:_ZN4Sass6Parser24parse_interpolated_chunkENS_5TokenEbb
_sass.abi3.so:_ZN4Sass6Parser24parse_supports_conditionEb
_sass.abi3.so:_ZN4Sass6Parser24parse_supports_directiveEv
_sass.abi3.so:_ZN4Sass6Parser25parse_url_function_stringEv
_sass.abi3.so:_ZN4Sass6Parser25re_attr_insensitive_closeEPKc
_sass.abi3.so:_ZN4Sass6Parser26lex_almost_any_value_charsEv
_sass.abi3.so:_ZN4Sass6Parser26lex_almost_any_value_tokenEv
_sass.abi3.so:_ZN4Sass6Parser26parse_function_call_schemaEv
_sass.abi3.so:_ZN4Sass6Parser26parse_supports_declarationEv
_sass.abi3.so:_ZN4Sass6Parser27parse_url_function_argumentEv
_sass.abi3.so:_ZN4Sass6Parser28parse_supports_interpolationEv
_sass.abi3.so:_ZN4Sass6Parser34parse_supports_condition_in_parensEb
_sass.abi3.so:_ZN4Sass6Parser5errorENSt7__cxx1112basic_stringIcSt11char_traitsIcESaIcEEE
_sass.abi3.so:_ZN4Sass6Parser5parseEv
_sass.abi3.so:_ZN4Sass6Parser8read_bomEv
_sass.abi3.so:_ZN4Sass6Parser9css_errorERKNSt7__cxx1112basic_stringIcSt11char_traitsIcESaIcEEES8_S8_b
_sass.abi3.so:_ZN4Sass6Parser9parse_mapEv
_sass.abi3.so:_ZN4Sass6ParserC1EPNS_10SourceDataERNS_7ContextESt6vectorINS_9BacktraceESaIS6_EEb
_sass.abi3.so:_ZN4Sass6ParserC2EPNS_10SourceDataERNS_7ContextESt6vectorINS_9BacktraceESaIS6_EEb
_sass.abi3.so:_ZN4Sass6ReturnC1ENS_10SourceSpanENS_10SharedImplINS_10ExpressionEEE
_sass.abi3.so:_ZN4Sass6ReturnC1EPKS0_
_sass.abi3.so:_ZN4Sass6ReturnC2ENS_10SourceSpanENS_10SharedImplINS_10ExpressionEEE
_sass.abi3.so:_ZN4Sass6ReturnC2EPKS0_
_sass.abi3.so:_ZN4Sass6StringC1ENS_10SourceSpanEb
_sass.abi3.so:_ZN4Sass6StringC1EPKS0_
_sass.abi3.so:_ZN4Sass6StringC2ENS_10SourceSpanEb
_sass.abi3.so:_ZN4Sass6StringC2EPKS0_
_sass.abi3.so:_ZN4Sass7BooleanC1ENS_10SourceSpanEb
_sass.abi3.so:_ZN4Sass7BooleanC1EPKS0_
_sass.abi3.so:_ZN4Sass7BooleanC2ENS_10SourceSpanEb
_sass.abi3.so:_ZN4Sass7BooleanC2EPKS0_
_sass.abi3.so:_ZN4Sass7CommentC1ENS_10SourceSpanENS_10SharedImplINS_6StringEEEb
_sass.abi3.so:_ZN4Sass7CommentC1EPKS0_
_sass.abi3.so:_ZN4Sass7CommentC2ENS_10SourceSpanENS_10SharedImplINS_6StringEEEb
_sass.abi3.so:_ZN4Sass7CommentC2EPKS0_
_sass.abi3.so:_ZN4Sass7ContentC1ENS_10SourceSpanENS_10SharedImplINS_9ArgumentsEEE
_sass.abi3.so:_ZN4Sass7ContentC1EPKS0_
_sass.abi3.so:_ZN4Sass7ContentC2ENS_10SourceSpanENS_10SharedImplINS_9ArgumentsEEE
_sass.abi3.so:_ZN4Sass7ContentC2EPKS0_
_sass.abi3.so:_ZN4Sass7Context10import_urlEPNS_6ImportENSt7__cxx1112basic_stringIcSt11char_traitsIcESaIcEEERKS8_
_sass.abi3.so:_ZN4Sass7Context11call_loaderERKNSt7__cxx1112basic_stringIcSt11char_traitsIcESaIcEEEPKcRNS_10SourceSpanEPNS_6ImportESt6vectorIP13Sass_ImporterSaISH_EEb
_sass.abi3.so:_ZN4Sass7Context11load_importERKNS_8ImporterENS_10SourceSpanE
_sass.abi3.so:_ZN4Sass7Context12add_c_headerEP13Sass_Importer
_sass.abi3.so:_ZN4Sass7Context13find_includesERKNS_8ImporterE
_sass.abi3.so:_ZN4Sass7Context13render_srcmapEv
_sass.abi3.so:_ZN4Sass7Context14add_c_functionEP13Sass_Function
_sass.abi3.so:_ZN4Sass7Context14add_c_importerEP13Sass_Importer
_sass.abi3.so:_ZN4Sass7Context17register_resourceERKNS_7IncludeERKNS_8ResourceE
_sass.abi3.so:_ZN4Sass7Context17register_resourceERKNS_7IncludeERKNS_8ResourceERNS_10SourceSpanE
_sass.abi3.so:_ZN4Sass7Context18get_included_filesB5cxx11Ebm
_sass.abi3.so:_ZN4Sass7Context20apply_custom_headersENS_10SharedImplINS_5BlockEEEPKcNS_10SourceSpanE
_sass.abi3.so:_ZN4Sass7Context20collect_plugin_pathsEP11string_list
_sass.abi3.so:_ZN4Sass7Context20collect_plugin_pathsEPKc
_sass.abi3.so:_ZN4Sass7Context21collect_include_pathsEP11string_list
_sass.abi3.so:_ZN4Sass7Context21collect_include_pathsEPKc
_sass.abi3.so:_ZN4Sass7Context25format_source_mapping_urlERKNSt7__cxx1112basic_stringIcSt11char_traitsIcESaIcEEE
_sass.abi3.so:_ZN4Sass7Context26format_embedded_source_mapB5cxx11Ev
_sass.abi3.so:_ZN4Sass7Context6renderENS_10SharedImplINS_5BlockEEE
_sass.abi3.so:_ZN4Sass7Context7compileEv
_sass.abi3.so:_ZN4Sass7ContextC1ER12Sass_Context
_sass.abi3.so:_ZN4Sass7ContextC2ER12Sass_Context
_sass.abi3.so:_ZN4Sass7ContextD0Ev
_sass.abi3.so:_ZN4Sass7ContextD1Ev
_sass.abi3.so:_ZN4Sass7ContextD2Ev
_sass.abi3.so:_ZN4Sass7Emitter10get_bufferB5cxx11Ev
_sass.abi3.so:_ZN4Sass7Emitter11append_charEc
_sass.abi3.so:_ZN4Sass7Emitter12append_tokenERKNSt7__cxx1112basic_stringIcSt11char_traitsIcESaIcEEEPKNS_8AST_NodeE
_sass.abi3.so:_ZN4Sass7Emitter12set_filenameERKNSt7__cxx1112basic_stringIcSt11char_traitsIcESaIcEEE
_sass.abi3.so:_ZN4Sass7Emitter13append_stringERKNSt7__cxx1112basic_stringIcSt11char_traitsIcESaIcEEE
_sass.abi3.so:_ZN4Sass7Emitter13append_wspaceERKNSt7__cxx1112basic_stringIcSt11char_traitsIcESaIcEEE
_sass.abi3.so:_ZN4Sass7Emitter13render_srcmapB5cxx11ERNS_7ContextE
_sass.abi3.so:_ZN4Sass7Emitter14prepend_outputERKNS_12OutputBufferE
_sass.abi3.so:_ZN4Sass7Emitter14prepend_stringERKNSt7__cxx1112basic_stringIcSt11char_traitsIcESaIcEEE
_sass.abi3.so:_ZN4Sass7Emitter15flush_schedulesEv
_sass.abi3.so:_ZN4Sass7Emitter16add_open_mappingEPKNS_8AST_NodeE
_sass.abi3.so:_ZN4Sass7Emitter16add_source_indexEm
_sass.abi3.so:_ZN4Sass7Emitter16append_delimiterEv
_sass.abi3.so:_ZN4Sass7Emitter16schedule_mappingEPKNS_8AST_NodeE
_sass.abi3.so:_ZN4Sass7Emitter17add_close_mappingEPKNS_8AST_NodeE
_sass.abi3.so:_ZN4Sass7Emitter18append_indentationEv
_sass.abi3.so:_ZN4Sass7Emitter19append_scope_closerEPNS_8AST_NodeE
_sass.abi3.so:_ZN4Sass7Emitter19append_scope_openerEPNS_8AST_NodeE
_sass.abi3.so:_ZN4Sass7Emitter21append_optional_spaceEv
_sass.abi3.so:_ZN4Sass7Emitter22append_colon_separatorEv
_sass.abi3.so:_ZN4Sass7Emitter22append_comma_separatorEv
_sass.abi3.so:_ZN4Sass7Emitter22append_mandatory_spaceEv
_sass.abi3.so:_ZN4Sass7Emitter23append_special_linefeedEv
_sass.abi3.so:_ZN4Sass7Emitter24append_optional_linefeedEv
_sass.abi3.so:_ZN4Sass7Emitter25append_mandatory_linefeedEv
_sass.abi3.so:_ZN4Sass7Emitter5remapERKNS_10SourceSpanE
_sass.abi3.so:_ZN4Sass7Emitter8finalizeEb
_sass.abi3.so:_ZN4Sass7Emitter9last_charEv
_sass.abi3.so:_ZN4Sass7EmitterC1ER19Sass_Output_Options
_sass.abi3.so:_ZN4Sass7EmitterC2ER19Sass_Output_Options
_sass.abi3.so:_ZN4Sass7ForRuleC1ENS_10SourceSpanENSt7__cxx1112basic_stringIcSt11char_traitsIcESaIcEEENS_10SharedImplINS_10ExpressionEEESA_NS8_INS_5BlockEEEb
_sass.abi3.so:_ZN4Sass7ForRuleC1EPKS0_
_sass.abi3.so:_ZN4Sass7ForRuleC2ENS_10SourceSpanENSt7__cxx1112basic_stringIcSt11char_traitsIcESaIcEEENS_10SharedImplINS_10ExpressionEEESA_NS8_INS_5BlockEEEb
_sass.abi3.so:_ZN4Sass7ForRuleC2EPKS0_
_sass.abi3.so:_ZN4Sass7Inspect8lbracketB5cxx11EPNS_4ListE
_sass.abi3.so:_ZN4Sass7Inspect8rbracketB5cxx11EPNS_4ListE
_sass.abi3.so:_ZN4Sass7InspectC1ERKNS_7EmitterE
_sass.abi3.so:_ZN4Sass7InspectC2ERKNS_7EmitterE
_sass.abi3.so:_ZN4Sass7InspectD0Ev
_sass.abi3.so:_ZN4Sass7InspectD1Ev
_sass.abi3.so:_ZN4Sass7InspectD2Ev
_sass.abi3.so:_ZN4Sass7InspectclEPNS_10AssignmentE
_sass.abi3.so:_ZN4Sass7InspectclEPNS_10AtRootRuleE
_sass.abi3.so:_ZN4Sass7InspectclEPNS_10Color_HSLAE
_sass.abi3.so:_ZN4Sass7InspectclEPNS_10Color_RGBAE
_sass.abi3.so:_ZN4Sass7InspectclEPNS_10DefinitionE
_sass.abi3.so:_ZN4Sass7InspectclEPNS_10ExtendRuleE
_sass.abi3.so:_ZN4Sass7InspectclEPNS_10IDSelectorE
_sass.abi3.so:_ZN4Sass7InspectclEPNS_10Mixin_CallE
_sass.abi3.so:_ZN4Sass7InspectclEPNS_10ParametersE
_sass.abi3.so:_ZN4Sass7InspectclEPNS_11DeclarationE
_sass.abi3.so:_ZN4Sass7InspectclEPNS_11Import_StubE
_sass.abi3.so:_ZN4Sass7InspectclEPNS_11Media_QueryE
_sass.abi3.so:_ZN4Sass7InspectclEPNS_11WarningRuleE
_sass.abi3.so:_ZN4Sass7InspectclEPNS_12CssMediaRuleE
_sass.abi3.so:_ZN4Sass7InspectclEPNS_12Custom_ErrorE
_sass.abi3.so:_ZN4Sass7InspectclEPNS_12SelectorListE
_sass.abi3.so:_ZN4Sass7InspectclEPNS_12SupportsRuleE
_sass.abi3.so:_ZN4Sass7InspectclEPNS_12TypeSelectorE
_sass.abi3.so:_ZN4Sass7InspectclEPNS_13At_Root_QueryE
_sass.abi3.so:_ZN4Sass7InspectclEPNS_13ClassSelectorE
_sass.abi3.so:_ZN4Sass7InspectclEPNS_13CssMediaQueryE
_sass.abi3.so:_ZN4Sass7InspectclEPNS_13Function_CallE
_sass.abi3.so:_ZN4Sass7InspectclEPNS_13Keyframe_RuleE
_sass.abi3.so:_ZN4Sass7InspectclEPNS_13String_QuotedE
_sass.abi3.so:_ZN4Sass7InspectclEPNS_13String_SchemaE
_sass.abi3.so:_ZN4Sass7InspectclEPNS_14Custom_WarningE
_sass.abi3.so:_ZN4Sass7InspectclEPNS_14PseudoSelectorE
_sass.abi3.so:_ZN4Sass7InspectclEPNS_15ComplexSelectorE
_sass.abi3.so:_ZN4Sass7InspectclEPNS_15Selector_SchemaE
_sass.abi3.so:_ZN4Sass7InspectclEPNS_15String_ConstantE
_sass.abi3.so:_ZN4Sass7InspectclEPNS_16CompoundSelectorE
_sass.abi3.so:_ZN4Sass7InspectclEPNS_16Parent_ReferenceE
_sass.abi3.so:_ZN4Sass7InspectclEPNS_16SupportsNegationE
_sass.abi3.so:_ZN4Sass7InspectclEPNS_16Unary_ExpressionE
_sass.abi3.so:_ZN4Sass7InspectclEPNS_17AttributeSelectorE
_sass.abi3.so:_ZN4Sass7InspectclEPNS_17Binary_ExpressionE
_sass.abi3.so:_ZN4Sass7InspectclEPNS_17SelectorComponentE
_sass.abi3.so:_ZN4Sass7InspectclEPNS_17SupportsOperationE
_sass.abi3.so:_ZN4Sass7InspectclEPNS_18SelectorCombinatorE
_sass.abi3.so:_ZN4Sass7InspectclEPNS_19PlaceholderSelectorE
_sass.abi3.so:_ZN4Sass7InspectclEPNS_19SupportsDeclarationE
_sass.abi3.so:_ZN4Sass7InspectclEPNS_22Media_Query_ExpressionE
_sass.abi3.so:_ZN4Sass7InspectclEPNS_22Supports_InterpolationE
_sass.abi3.so:_ZN4Sass7InspectclEPNS_2IfE
_sass.abi3.so:_ZN4Sass7InspectclEPNS_3MapE
_sass.abi3.so:_ZN4Sass7InspectclEPNS_4ListE
_sass.abi3.so:_ZN4Sass7InspectclEPNS_4NullE
_sass.abi3.so:_ZN4Sass7InspectclEPNS_5BlockE
_sass.abi3.so:_ZN4Sass7InspectclEPNS_6AtRuleE
_sass.abi3.so:_ZN4Sass7InspectclEPNS_6BubbleE
_sass.abi3.so:_ZN4Sass7InspectclEPNS_6ImportE
_sass.abi3.so:_ZN4Sass7InspectclEPNS_6NumberE
_sass.abi3.so:_ZN4Sass7InspectclEPNS_6ReturnE
_sass.abi3.so:_ZN4Sass7InspectclEPNS_7BooleanE
_sass.abi3.so:_ZN4Sass7InspectclEPNS_7CommentE
_sass.abi3.so:_ZN4Sass7InspectclEPNS_7ContentE
_sass.abi3.so:_ZN4Sass7InspectclEPNS_7ForRuleE
_sass.abi3.so:_ZN4Sass7InspectclEPNS_8ArgumentE
_sass.abi3.so:_ZN4Sass7InspectclEPNS_8EachRuleE
_sass.abi3.so:_ZN4Sass7InspectclEPNS_8FunctionE
_sass.abi3.so:_ZN4Sass7InspectclEPNS_8VariableE
_sass.abi3.so:_ZN4Sass7InspectclEPNS_9ArgumentsE
_sass.abi3.so:_ZN4Sass7InspectclEPNS_9DebugRuleE
_sass.abi3.so:_ZN4Sass7InspectclEPNS_9ErrorRuleE
_sass.abi3.so:_ZN4Sass7InspectclEPNS_9MediaRuleE
_sass.abi3.so:_ZN4Sass7InspectclEPNS_9ParameterE
_sass.abi3.so:_ZN4Sass7InspectclEPNS_9StyleRuleE
_sass.abi3.so:_ZN4Sass7InspectclEPNS_9WhileRuleE
_sass.abi3.so:_ZN4Sass7Listize7performEPNS_8AST_NodeE
_sass.abi3.so:_ZN4Sass7ListizeC1Ev
_sass.abi3.so:_ZN4Sass7ListizeC2Ev
_sass.abi3.so:_ZN4Sass7ListizeclEPNS_12SelectorListE
_sass.abi3.so:_ZN4Sass7ListizeclEPNS_15ComplexSelectorE
_sass.abi3.so:_ZN4Sass7ListizeclEPNS_16CompoundSelectorE
_sass.abi3.so:_ZN4Sass7Plugins11load_pluginERKNSt7__cxx1112basic_stringIcSt11char_traitsIcESaIcEEE
_sass.abi3.so:_ZN4Sass7Plugins12load_pluginsERKNSt7__cxx1112basic_stringIcSt11char_traitsIcESaIcEEE
_sass.abi3.so:_ZN4Sass7PluginsC1Ev
_sass.abi3.so:_ZN4Sass7PluginsC2Ev
_sass.abi3.so:_ZN4Sass7PluginsD1Ev
_sass.abi3.so:_ZN4Sass7PluginsD2Ev
_sass.abi3.so:_ZN4Sass7hasRootEPKNS_16CompoundSelectorE
_sass.abi3.so:_ZN4Sass7processERNSt7__cxx1112basic_stringIcSt11char_traitsIcESaIcEEERNS_9converterE
_sass.abi3.so:_ZN4Sass7unquoteERKNSt7__cxx1112basic_stringIcSt11char_traitsIcESaIcEEEPcbb
_sass.abi3.so:_ZN4Sass7warningENSt7__cxx1112basic_stringIcSt11char_traitsIcESaIcEEENS_10SourceSpanE
_sass.abi3.so:_ZN4Sass8AST_Node13update_pstateERKNS_10SourceSpanE
_sass.abi3.so:_ZN4Sass8Argument11set_delayedEb
_sass.abi3.so:_ZN4Sass8ArgumentC1ENS_10SourceSpanENS_10SharedImplINS_10ExpressionEEENSt7__cxx1112basic_stringIcSt11char_traitsIcESaIcEEEbb
_sass.abi3.so:_ZN4Sass8ArgumentC1EPKS0_
_sass.abi3.so:_ZN4Sass8ArgumentC2ENS_10SourceSpanENS_10SharedImplINS_10ExpressionEEENSt7__cxx1112basic_stringIcSt11char_traitsIcESaIcEEEbb
_sass.abi3.so:_ZN4Sass8ArgumentC2EPKS0_
_sass.abi3.so:_ZN4Sass8EachRuleC1ENS_10SourceSpanESt6vectorINSt7__cxx1112basic_stringIcSt11char_traitsIcESaIcEEESaIS8_EENS_10SharedImplINS_10ExpressionEEENSB_INS_5BlockEEE
_sass.abi3.so:_ZN4Sass8EachRuleC1EPKS0_
_sass.abi3.so:_ZN4Sass8EachRuleC2ENS_10SourceSpanESt6vectorINSt7__cxx1112basic_stringIcSt11char_traitsIcESaIcEEESaIS8_EENS_10SharedImplINS_10ExpressionEEENSB_INS_5BlockEEE
_sass.abi3.so:_ZN4Sass8EachRuleC2EPKS0_
_sass.abi3.so:_ZN4Sass8Extender10extendListERKNS_10SharedImplINS_12SelectorListEEERKSt13unordered_mapINS1_INS_14SimpleSelectorEEENS_11ordered_mapINS1_INS_15ComplexSelectorEEENS_9ExtensionENS_7ObjHashENS_11ObjEqualityESaISt4pairIKSB_SC_EEEESD_SE_SaISF_IKS8_SJ_EEERKNS1_INS_12CssMediaRuleEEE
_sass.abi3.so:_ZN4Sass8Extender11addSelectorERKNS_10SharedImplINS_12SelectorListEEERKNS1_INS_12CssMediaRuleEEE
_sass.abi3.so:_ZN4Sass8Extender11rotateSliceERSt6vectorINS_10SharedImplINS_15ComplexSelectorEEESaIS4_EEmm
_sass.abi3.so:_ZN4Sass8Extender12addExtensionERKNS_10SharedImplINS_12SelectorListEEERKNS1_INS_14SimpleSelectorEEERKNS1_INS_12CssMediaRuleEEEb
_sass.abi3.so:_ZN4Sass8Extender12extendPseudoERKNS_10SharedImplINS_14PseudoSelectorEEERKSt13unordered_mapINS1_INS_14SimpleSelectorEEENS_11ordered_mapINS1_INS_15ComplexSelectorEEENS_9ExtensionENS_7ObjHashENS_11ObjEqualityESaISt4pairIKSB_SC_EEEESD_SE_SaISF_IKS8_SJ_EEERKNS1_INS_12CssMediaRuleEEE
_sass.abi3.so:_ZN4Sass8Extender12extendSimpleERKNS_10SharedImplINS_14SimpleSelectorEEERKSt13unordered_mapIS3_NS_11ordered_mapINS1_INS_15ComplexSelectorEEENS_9ExtensionENS_7ObjHashENS_11ObjEqualityESaISt4pairIKS9_SA_EEEESB_SC_SaISD_IS4_SH_EEERKNS1_INS_12CssMediaRuleEEEPSt13unordered_setIS3_SB_SC_SaIS3_EE
_sass.abi3.so:_ZN4Sass8Extender13extendComplexERKNS_10SharedImplINS_15ComplexSelectorEEERKSt13unordered_mapINS1_INS_14SimpleSelectorEEENS_11ordered_mapIS3_NS_9ExtensionENS_7ObjHashENS_11ObjEqualityESaISt4pairIS4_SA_EEEESB_SC_SaISD_IKS8_SG_EEERKNS1_INS_12CssMediaRuleEEE
_sass.abi3.so:_ZN4Sass8Extender13hasExactlyOneERKNS_10SharedImplINS_15ComplexSelectorEEE
_sass.abi3.so:_ZN4Sass8Extender14extendCompoundERKNS_10SharedImplINS_16CompoundSelectorEEERKSt13unordered_mapINS1_INS_14SimpleSelectorEEENS_11ordered_mapINS1_INS_15ComplexSelectorEEENS_9ExtensionENS_7ObjHashENS_11ObjEqualityESaISt4pairIKSB_SC_EEEESD_SE_SaISF_IKS8_SJ_EEERKNS1_INS_12CssMediaRuleEEEb
_sass.abi3.so:_ZN4Sass8Extender14hasMoreThanOneERKNS_10SharedImplINS_15ComplexSelectorEEE
_sass.abi3.so:_ZN4Sass8Extender14mergeExtensionERKNS_9ExtensionES3_
_sass.abi3.so:_ZN4Sass8Extender15dontTrimComplexEPKNS_15ComplexSelectorES3_m
_sass.abi3.so:_ZN4Sass8Extender15extendOrReplaceERNS_10SharedImplINS_12SelectorListEEERKS3_S6_NS0_10ExtendModeERSt6vectorINS_9BacktraceESaIS9_EE
_sass.abi3.so:_ZN4Sass8Extender16registerSelectorERKNS_10SharedImplINS_12SelectorListEEES5_
_sass.abi3.so:_ZN4Sass8Extender19extendPseudoComplexERKNS_10SharedImplINS_15ComplexSelectorEEERKNS1_INS_14PseudoSelectorEEERKNS1_INS_12CssMediaRuleEEE
_sass.abi3.so:_ZN4Sass8Extender24extendExistingExtensionsERKSt6vectorINS_9ExtensionESaIS2_EERKSt13unordered_mapINS_10SharedImplINS_14SimpleSelectorEEENS_11ordered_mapINS8_INS_15ComplexSelectorEEES2_NS_7ObjHashENS_11ObjEqualityESaISt4pairIKSD_S2_EEEESE_SF_SaISG_IKSA_SK_EEE
_sass.abi3.so:_ZN4Sass8Extender24extendExistingStyleRulesERKSt13unordered_setINS_10SharedImplINS_12SelectorListEEENS_10ObjPtrHashENS_14ObjPtrEqualityESaIS4_EERKSt13unordered_mapINS2_INS_14SimpleSelectorEEENS_11ordered_mapINS2_INS_15ComplexSelectorEEENS_9ExtensionENS_7ObjHashENS_11ObjEqualityESaISt4pairIKSG_SH_EEEESI_SJ_SaISK_IKSD_SO_EEE
_sass.abi3.so:_ZN4Sass8Extender6extendERNS_10SharedImplINS_12SelectorListEEERKS3_S6_RSt6vectorINS_9BacktraceESaIS8_EE
_sass.abi3.so:_ZN4Sass8Extender7replaceERNS_10SharedImplINS_12SelectorListEEERKS3_S6_RSt6vectorINS_9BacktraceESaIS8_EE
_sass.abi3.so:_ZN4Sass8ExtenderC1ENS0_10ExtendModeERSt6vectorINS_9BacktraceESaIS3_EE
_sass.abi3.so:_ZN4Sass8ExtenderC1ERSt6vectorINS_9BacktraceESaIS2_EE
_sass.abi3.so:_ZN4Sass8ExtenderC2ENS0_10ExtendModeERSt6vectorINS_9BacktraceESaIS3_EE
_sass.abi3.so:_ZN4Sass8ExtenderC2ERSt6vectorINS_9BacktraceESaIS2_EE
_sass.abi3.so:_ZN4Sass8Function4nameB5cxx11Ev
_sass.abi3.so:_ZN4Sass8FunctionC1ENS_10SourceSpanENS_10SharedImplINS_10DefinitionEEEb
_sass.abi3.so:_ZN4Sass8FunctionC1EPKS0_
_sass.abi3.so:_ZN4Sass8FunctionC2ENS_10SourceSpanENS_10SharedImplINS_10DefinitionEEEb
_sass.abi3.so:_ZN4Sass8FunctionC2EPKS0_
_sass.abi3.so:_ZN4Sass8ItplFile13getSourceSpanEv
_sass.abi3.so:_ZN4Sass8ItplFileC1EPKcRKNS_10SourceSpanE
_sass.abi3.so:_ZN4Sass8ItplFileC2EPKcRKNS_10SourceSpanE
_sass.abi3.so:_ZN4Sass8Position3addEPKcS2_
_sass.abi3.so:_ZN4Sass8PositionC1Em
_sass.abi3.so:_ZN4Sass8PositionC1EmRKNS_6OffsetE
_sass.abi3.so:_ZN4Sass8PositionC1Emm
_sass.abi3.so:_ZN4Sass8PositionC1Emmm
_sass.abi3.so:_ZN4Sass8PositionC2Em
_sass.abi3.so:_ZN4Sass8PositionC2EmRKNS_6OffsetE
_sass.abi3.so:_ZN4Sass8PositionC2Emm
_sass.abi3.so:_ZN4Sass8PositionC2Emmm
_sass.abi3.so:_ZN4Sass8PositionpLERKNS_6OffsetE
_sass.abi3.so:_ZN4Sass8PreValueC1ENS_10SourceSpanEbbbNS_10Expression4TypeE
_sass.abi3.so:_ZN4Sass8PreValueC1EPKS0_
_sass.abi3.so:_ZN4Sass8PreValueC2ENS_10SourceSpanEbbbNS_10Expression4TypeE
_sass.abi3.so:_ZN4Sass8PreValueC2EPKS0_
_sass.abi3.so:_ZN4Sass8Prelexer10at_keywordEPKc
_sass.abi3.so:_ZN4Sass8Prelexer10class_nameEPKc
_sass.abi3.so:_ZN4Sass8Prelexer10dash_matchEPKc
_sass.abi3.so:_ZN4Sass8Prelexer10escape_seqEPKc
_sass.abi3.so:_ZN4Sass8Prelexer10identifierEPKc
_sass.abi3.so:_ZN4Sass8Prelexer10kwd_extendEPKc
_sass.abi3.so:_ZN4Sass8Prelexer10kwd_importEPKc
_sass.abi3.so:_ZN4Sass8Prelexer10percentageEPKc
_sass.abi3.so:_ZN4Sass8Prelexer10pseudo_notEPKc
_sass.abi3.so:_ZN4Sass8Prelexer10re_nothingEPKc
_sass.abi3.so:_ZN4Sass8Prelexer10sass_valueEPKc
_sass.abi3.so:_ZN4Sass8Prelexer10uri_prefixEPKc
_sass.abi3.so:_ZN4Sass8Prelexer11class_matchEPKc
_sass.abi3.so:_ZN4Sass8Prelexer11coefficientEPKc
_sass.abi3.so:_ZN4Sass8Prelexer11end_of_fileEPKc
_sass.abi3.so:_ZN4Sass8Prelexer11end_of_lineEPKc
_sass.abi3.so:_ZN4Sass8Prelexer11exact_matchEPKc
_sass.abi3.so:_ZN4Sass8Prelexer11global_flagEPKc
_sass.abi3.so:_ZN4Sass8Prelexer11ie_propertyEPKc
_sass.abi3.so:_ZN4Sass8Prelexer11interpolantEPKc
_sass.abi3.so:_ZN4Sass8Prelexer11kwd_at_rootEPKc
_sass.abi3.so:_ZN4Sass8Prelexer11kwd_throughEPKc
_sass.abi3.so:_ZN4Sass8Prelexer11placeholderEPKc
_sass.abi3.so:_ZN4Sass8Prelexer11unicode_seqEPKc
_sass.abi3.so:_ZN4Sass8Prelexer12calc_fn_callEPKc
_sass.abi3.so:_ZN4Sass8Prelexer12css_commentsEPKc
_sass.abi3.so:_ZN4Sass8Prelexer12default_flagEPKc
_sass.abi3.so:_ZN4Sass8Prelexer12is_characterEc
_sass.abi3.so:_ZN4Sass8Prelexer12kwd_functionEPKc
_sass.abi3.so:_ZN4Sass8Prelexer12kwd_optionalEPKc
_sass.abi3.so:_ZN4Sass8Prelexer12line_commentEPKc
_sass.abi3.so:_ZN4Sass8Prelexer12prefix_matchEPKc
_sass.abi3.so:_ZN4Sass8Prelexer12re_linebreakEPKc
_sass.abi3.so:_ZN4Sass8Prelexer12static_valueEPKc
_sass.abi3.so:_ZN4Sass8Prelexer12suffix_matchEPKc
_sass.abi3.so:_ZN4Sass8Prelexer12value_schemaEPKc
_sass.abi3.so:_ZN4Sass8Prelexer13block_commentEPKc
_sass.abi3.so:_ZN4Sass8Prelexer13ie_expressionEPKc
_sass.abi3.so:_ZN4Sass8Prelexer13kwd_importantEPKc
_sass.abi3.so:_ZN4Sass8Prelexer13number_prefixEPKc
_sass.abi3.so:_ZN4Sass8Prelexer13pseudo_prefixEPKc
_sass.abi3.so:_ZN4Sass8Prelexer13quoted_stringEPKc
_sass.abi3.so:_ZN4Sass8Prelexer13re_functionalEPKc
_sass.abi3.so:_ZN4Sass8Prelexer13static_stringEPKc
_sass.abi3.so:_ZN4Sass8Prelexer13type_selectorEPKc
_sass.abi3.so:_ZN4Sass8Prelexer13uri_characterEPKc
_sass.abi3.so:_ZN4Sass8Prelexer13word_boundaryEPKc
_sass.abi3.so:_ZN4Sass8Prelexer14attribute_nameEPKc
_sass.abi3.so:_ZN4Sass8Prelexer14css_identifierEPKc
_sass.abi3.so:_ZN4Sass8Prelexer14css_whitespaceEPKc
_sass.abi3.so:_ZN4Sass8Prelexer14ie_keyword_argEPKc
_sass.abi3.so:_ZN4Sass8Prelexer14multiple_unitsEPKc
_sass.abi3.so:_ZN4Sass8Prelexer14re_special_funEPKc
_sass.abi3.so:_ZN4Sass8Prelexer14real_uri_valueEPKc
_sass.abi3.so:_ZN4Sass8Prelexer15list_terminatorEPKc
_sass.abi3.so:_ZN4Sass8Prelexer15optional_spacesEPKc
_sass.abi3.so:_ZN4Sass8Prelexer15real_uri_suffixEPKc
_sass.abi3.so:_ZN4Sass8Prelexer15static_propertyEPKc
_sass.abi3.so:_ZN4Sass8Prelexer15substring_matchEPKc
_sass.abi3.so:_ZN4Sass8Prelexer15unit_identifierEPKc
_sass.abi3.so:_ZN4Sass8Prelexer15unsigned_numberEPKc
_sass.abi3.so:_ZN4Sass8Prelexer16elseif_directiveEPKc
_sass.abi3.so:_ZN4Sass8Prelexer16hyphens_and_nameEPKc
_sass.abi3.so:_ZN4Sass8Prelexer16identifier_alnumEPKc
_sass.abi3.so:_ZN4Sass8Prelexer16identifier_alphaEPKc
_sass.abi3.so:_ZN4Sass8Prelexer16is_uri_characterEc
_sass.abi3.so:_ZN4Sass8Prelexer16kwd_if_directiveEPKc
_sass.abi3.so:_ZN4Sass8Prelexer16namespace_prefixEPKc
_sass.abi3.so:_ZN4Sass8Prelexer16namespace_schemaEPKc
_sass.abi3.so:_ZN4Sass8Prelexer16parenthese_scopeEPKc
_sass.abi3.so:_ZN4Sass8Prelexer16re_selector_listEPKc
_sass.abi3.so:_ZN4Sass8Prelexer16re_type_selectorEPKc
_sass.abi3.so:_ZN4Sass8Prelexer16static_componentEPKc
_sass.abi3.so:_ZN4Sass8Prelexer17css_ip_identifierEPKc
_sass.abi3.so:_ZN4Sass8Prelexer17functional_schemaEPKc
_sass.abi3.so:_ZN4Sass8Prelexer17identifier_alnumsEPKc
_sass.abi3.so:_ZN4Sass8Prelexer17identifier_schemaEPKc
_sass.abi3.so:_ZN4Sass8Prelexer17kwd_for_directiveEPKc
_sass.abi3.so:_ZN4Sass8Prelexer17strict_identifierEPKc
_sass.abi3.so:_ZN4Sass8Prelexer18css_variable_valueEPKc
_sass.abi3.so:_ZN4Sass8Prelexer18kwd_each_directiveEPKc
_sass.abi3.so:_ZN4Sass8Prelexer18kwd_else_directiveEPKc
_sass.abi3.so:_ZN4Sass8Prelexer18kwd_with_directiveEPKc
_sass.abi3.so:_ZN4Sass8Prelexer18re_pseudo_selectorEPKc
_sass.abi3.so:_ZN4Sass8Prelexer18re_string_uri_openEPKc
_sass.abi3.so:_ZN4Sass8Prelexer18value_combinationsEPKc
_sass.abi3.so:_ZN4Sass8Prelexer19escapable_characterEPKc
_sass.abi3.so:_ZN4Sass8Prelexer19kwd_while_directiveEPKc
_sass.abi3.so:_ZN4Sass8Prelexer19re_string_uri_closeEPKc
_sass.abi3.so:_ZN4Sass8Prelexer1HEPKc
_sass.abi3.so:_ZN4Sass8Prelexer1WEPKc
_sass.abi3.so:_ZN4Sass8Prelexer20double_quoted_stringEPKc
_sass.abi3.so:_ZN4Sass8Prelexer20ie_keyword_arg_valueEPKc
_sass.abi3.so:_ZN4Sass8Prelexer20kwd_return_directiveEPKc
_sass.abi3.so:_ZN4Sass8Prelexer20re_special_directiveEPKc
_sass.abi3.so:_ZN4Sass8Prelexer20re_static_expressionEPKc
_sass.abi3.so:_ZN4Sass8Prelexer20single_quoted_stringEPKc
_sass.abi3.so:_ZN4Sass8Prelexer21kwd_charset_directiveEPKc
_sass.abi3.so:_ZN4Sass8Prelexer21kwd_content_directiveEPKc
_sass.abi3.so:_ZN4Sass8Prelexer21kwd_include_directiveEPKc
_sass.abi3.so:_ZN4Sass8Prelexer21kwd_without_directiveEPKc
_sass.abi3.so:_ZN4Sass8Prelexer21optional_css_commentsEPKc
_sass.abi3.so:_ZN4Sass8Prelexer21re_prefixed_directiveEPKc
_sass.abi3.so:_ZN4Sass8Prelexer21re_string_double_openEPKc
_sass.abi3.so:_ZN4Sass8Prelexer21re_string_single_openEPKc
_sass.abi3.so:_ZN4Sass8Prelexer21space_list_terminatorEPKc
_sass.abi3.so:_ZN4Sass8Prelexer21string_double_negatesE
_sass.abi3.so:_ZN4Sass8Prelexer21string_single_negatesE
_sass.abi3.so:_ZN4Sass8Prelexer22hyphens_and_identifierEPKc
_sass.abi3.so:_ZN4Sass8Prelexer22is_escapable_characterEc
_sass.abi3.so:_ZN4Sass8Prelexer22kwd_supports_directiveEPKc
_sass.abi3.so:_ZN4Sass8Prelexer22re_string_double_closeEPKc
_sass.abi3.so:_ZN4Sass8Prelexer22re_string_single_closeEPKc
_sass.abi3.so:_ZN4Sass8Prelexer23ie_keyword_arg_propertyEPKc
_sass.abi3.so:_ZN4Sass8Prelexer23optional_css_whitespaceEPKc
_sass.abi3.so:_ZN4Sass8Prelexer23re_reference_combinatorEPKc
_sass.abi3.so:_ZN4Sass8Prelexer23strict_identifier_alnumEPKc
_sass.abi3.so:_ZN4Sass8Prelexer23strict_identifier_alphaEPKc
_sass.abi3.so:_ZN4Sass8Prelexer24css_variable_url_negatesE
_sass.abi3.so:_ZN4Sass8Prelexer25re_almost_any_value_tokenEPKc
_sass.abi3.so:_ZN4Sass8Prelexer27schema_reference_combinatorEPKc
_sass.abi3.so:_ZN4Sass8Prelexer27static_reference_combinatorEPKc
_sass.abi3.so:_ZN4Sass8Prelexer28css_variable_top_level_valueEPKc
_sass.abi3.so:_ZN4Sass8Prelexer2opEPKc
_sass.abi3.so:_ZN4Sass8Prelexer34css_variable_url_top_level_negatesE
_sass.abi3.so:_ZN4Sass8Prelexer3hexEPKc
_sass.abi3.so:_ZN4Sass8Prelexer3oddEPKc
_sass.abi3.so:_ZN4Sass8Prelexer4evenEPKc
_sass.abi3.so:_ZN4Sass8Prelexer4hex0EPKc
_sass.abi3.so:_ZN4Sass8Prelexer4hexaEPKc
_sass.abi3.so:_ZN4Sass8Prelexer4nameEPKc
_sass.abi3.so:_ZN4Sass8Prelexer4signEPKc
_sass.abi3.so:_ZN4Sass8Prelexer5alnumEPKc
_sass.abi3.so:_ZN4Sass8Prelexer5alphaEPKc
_sass.abi3.so:_ZN4Sass8Prelexer5digitEPKc
_sass.abi3.so:_ZN4Sass8Prelexer5spaceEPKc
_sass.abi3.so:_ZN4Sass8Prelexer6ESCAPEEPKc
_sass.abi3.so:_ZN4Sass8Prelexer6digitsEPKc
_sass.abi3.so:_ZN4Sass8Prelexer6hyphenEPKc
_sass.abi3.so:_ZN4Sass8Prelexer6kwd_atEPKc
_sass.abi3.so:_ZN4Sass8Prelexer6kwd_eqEPKc
_sass.abi3.so:_ZN4Sass8Prelexer6kwd_gtEPKc
_sass.abi3.so:_ZN4Sass8Prelexer6kwd_inEPKc
_sass.abi3.so:_ZN4Sass8Prelexer6kwd_ltEPKc
_sass.abi3.so:_ZN4Sass8Prelexer6kwd_orEPKc
_sass.abi3.so:_ZN4Sass8Prelexer6kwd_toEPKc
_sass.abi3.so:_ZN4Sass8Prelexer6numberEPKc
_sass.abi3.so:_ZN4Sass8Prelexer6spacesEPKc
_sass.abi3.so:_ZN4Sass8Prelexer6xdigitEPKc
_sass.abi3.so:_ZN4Sass8Prelexer7hyphensEPKc
_sass.abi3.so:_ZN4Sass8Prelexer7id_nameEPKc
_sass.abi3.so:_ZN4Sass8Prelexer7kwd_andEPKc
_sass.abi3.so:_ZN4Sass8Prelexer7kwd_dbgEPKc
_sass.abi3.so:_ZN4Sass8Prelexer7kwd_dotEPKc
_sass.abi3.so:_ZN4Sass8Prelexer7kwd_errEPKc
_sass.abi3.so:_ZN4Sass8Prelexer7kwd_gteEPKc
_sass.abi3.so:_ZN4Sass8Prelexer7kwd_lteEPKc
_sass.abi3.so:_ZN4Sass8Prelexer7kwd_neqEPKc
_sass.abi3.so:_ZN4Sass8Prelexer7kwd_notEPKc
_sass.abi3.so:_ZN4Sass8Prelexer8NONASCIIEPKc
_sass.abi3.so:_ZN4Sass8Prelexer8UUNICODEEPKc
_sass.abi3.so:_ZN4Sass8Prelexer8any_charEPKc
_sass.abi3.so:_ZN4Sass8Prelexer8binomialEPKc
_sass.abi3.so:_ZN4Sass8Prelexer8kwd_fromEPKc
_sass.abi3.so:_ZN4Sass8Prelexer8kwd_nullEPKc
_sass.abi3.so:_ZN4Sass8Prelexer8kwd_onlyEPKc
_sass.abi3.so:_ZN4Sass8Prelexer8kwd_plusEPKc
_sass.abi3.so:_ZN4Sass8Prelexer8kwd_starEPKc
_sass.abi3.so:_ZN4Sass8Prelexer8kwd_trueEPKc
_sass.abi3.so:_ZN4Sass8Prelexer8kwd_warnEPKc
_sass.abi3.so:_ZN4Sass8Prelexer8nonasciiEPKc
_sass.abi3.so:_ZN4Sass8Prelexer8one_unitEPKc
_sass.abi3.so:_ZN4Sass8Prelexer8real_uriEPKc
_sass.abi3.so:_ZN4Sass8Prelexer8variableEPKc
_sass.abi3.so:_ZN4Sass8Prelexer9ampersandEPKc
_sass.abi3.so:_ZN4Sass8Prelexer9dimensionEPKc
_sass.abi3.so:_ZN4Sass8Prelexer9ie_progidEPKc
_sass.abi3.so:_ZN4Sass8Prelexer9is_numberEc
_sass.abi3.so:_ZN4Sass8Prelexer9kwd_colonEPKc
_sass.abi3.so:_ZN4Sass8Prelexer9kwd_commaEPKc
_sass.abi3.so:_ZN4Sass8Prelexer9kwd_falseEPKc
_sass.abi3.so:_ZN4Sass8Prelexer9kwd_mediaEPKc
_sass.abi3.so:_ZN4Sass8Prelexer9kwd_minusEPKc
_sass.abi3.so:_ZN4Sass8Prelexer9kwd_mixinEPKc
_sass.abi3.so:_ZN4Sass8Prelexer9kwd_slashEPKc
_sass.abi3.so:_ZN4Sass8Prelexer9kwd_usingEPKc
_sass.abi3.so:_ZN4Sass8Prelexer9no_spacesEPKc
_sass.abi3.so:_ZN4Sass8Prelexer9universalEPKc
_sass.abi3.so:_ZN4Sass8SelectorC1ENS_10SourceSpanE
_sass.abi3.so:_ZN4Sass8SelectorC1EPKS0_
_sass.abi3.so:_ZN4Sass8SelectorC2ENS_10SourceSpanE
_sass.abi3.so:_ZN4Sass8SelectorC2EPKS0_
_sass.abi3.so:_ZN4Sass8To_ValueclEPNS_10Color_HSLAE
_sass.abi3.so:_ZN4Sass8To_ValueclEPNS_10Color_RGBAE
_sass.abi3.so:_ZN4Sass8To_ValueclEPNS_12Custom_ErrorE
_sass.abi3.so:_ZN4Sass8To_ValueclEPNS_12SelectorListE
_sass.abi3.so:_ZN4Sass8To_ValueclEPNS_13String_QuotedE
_sass.abi3.so:_ZN4Sass8To_ValueclEPNS_14Custom_WarningE
_sass.abi3.so:_ZN4Sass8To_ValueclEPNS_15String_ConstantE
_sass.abi3.so:_ZN4Sass8To_ValueclEPNS_17Binary_ExpressionE
_sass.abi3.so:_ZN4Sass8To_ValueclEPNS_3MapE
_sass.abi3.so:_ZN4Sass8To_ValueclEPNS_4ListE
_sass.abi3.so:_ZN4Sass8To_ValueclEPNS_4NullE
_sass.abi3.so:_ZN4Sass8To_ValueclEPNS_6NumberE
_sass.abi3.so:_ZN4Sass8To_ValueclEPNS_7BooleanE
_sass.abi3.so:_ZN4Sass8To_ValueclEPNS_8ArgumentE
_sass.abi3.so:_ZN4Sass8To_ValueclEPNS_8FunctionE
_sass.abi3.so:_ZN4Sass8VariableC1ENS_10SourceSpanENSt7__cxx1112basic_stringIcSt11char_traitsIcESaIcEEE
_sass.abi3.so:_ZN4Sass8VariableC1EPKS0_
_sass.abi3.so:_ZN4Sass8VariableC2ENS_10SourceSpanENSt7__cxx1112basic_stringIcSt11char_traitsIcESaIcEEE
_sass.abi3.so:_ZN4Sass8VariableC2EPKS0_
_sass.abi3.so:_ZN4Sass8h_to_rgbEddd
_sass.abi3.so:_ZN4Sass8isUniqueEPKNS_14SimpleSelectorE
_sass.abi3.so:_ZN4Sass8list2vecB5cxx11EP11string_list
_sass.abi3.so:_ZN4Sass8safe_strEPKcS1_
_sass.abi3.so:_ZN4Sass9Arguments11set_delayedEb
_sass.abi3.so:_ZN4Sass9Arguments17get_rest_argumentEv
_sass.abi3.so:_ZN4Sass9Arguments20adjust_after_pushingENS_10SharedImplINS_8ArgumentEEE
_sass.abi3.so:_ZN4Sass9Arguments20get_keyword_argumentEv
_sass.abi3.so:_ZN4Sass9ArgumentsC1ENS_10SourceSpanE
_sass.abi3.so:_ZN4Sass9ArgumentsC1EPKS0_
_sass.abi3.so:_ZN4Sass9ArgumentsC2ENS_10SourceSpanE
_sass.abi3.so:_ZN4Sass9ArgumentsC2EPKS0_
_sass.abi3.so:_ZN4Sass9Base64VLQ10CHARACTERSE
_sass.abi3.so:_ZN4Sass9Base64VLQ13VLQ_BASE_MASKE
_sass.abi3.so:_ZN4Sass9Base64VLQ14VLQ_BASE_SHIFTE
_sass.abi3.so:_ZN4Sass9Base64VLQ20VLQ_CONTINUATION_BITE
_sass.abi3.so:_ZN4Sass9Base64VLQ8VLQ_BASEE
_sass.abi3.so:_ZN4Sass9Constants10bocu_1_bomE
_sass.abi3.so:_ZN4Sass9Constants10color_nameE
_sass.abi3.so:_ZN4Sass9Constants10extend_kwdE
_sass.abi3.so:_ZN4Sass9Constants10global_kwdE
_sass.abi3.so:_ZN4Sass9Constants10import_kwdE
_sass.abi3.so:_ZN4Sass9Constants10pipe_equalE
_sass.abi3.so:_ZN4Sass9Constants10progid_kwdE
_sass.abi3.so:_ZN4Sass9Constants10return_kwdE
_sass.abi3.so:_ZN4Sass9Constants10rgb_fn_kwdE
_sass.abi3.so:_ZN4Sass9Constants10sign_charsE
_sass.abi3.so:_ZN4Sass9Constants10slash_starE
_sass.abi3.so:_ZN4Sass9Constants10star_equalE
_sass.abi3.so:_ZN4Sass9Constants10star_slashE
_sass.abi3.so:_ZN4Sass9Constants10static_opsE
_sass.abi3.so:_ZN4Sass9Constants10url_fn_kwdE
_sass.abi3.so:_ZN4Sass9Constants11at_root_kwdE
_sass.abi3.so:_ZN4Sass9Constants11calc_fn_kwdE
_sass.abi3.so:_ZN4Sass9Constants11caret_equalE
_sass.abi3.so:_ZN4Sass9Constants11charset_kwdE
_sass.abi3.so:_ZN4Sass9Constants11content_kwdE
_sass.abi3.so:_ZN4Sass9Constants11default_kwdE
_sass.abi3.so:_ZN4Sass9Constants11hash_lbraceE
_sass.abi3.so:_ZN4Sass9Constants11include_kwdE
_sass.abi3.so:_ZN4Sass9Constants11number_nameE
_sass.abi3.so:_ZN4Sass9Constants11percent_strE
_sass.abi3.so:_ZN4Sass9Constants11slash_slashE
_sass.abi3.so:_ZN4Sass9Constants11string_nameE
_sass.abi3.so:_ZN4Sass9Constants11through_kwdE
_sass.abi3.so:_ZN4Sass9Constants11tilde_equalE
_sass.abi3.so:_ZN4Sass9Constants11utf_7_bom_1E
_sass.abi3.so:_ZN4Sass9Constants11utf_7_bom_2E
_sass.abi3.so:_ZN4Sass9Constants11utf_7_bom_3E
_sass.abi3.so:_ZN4Sass9Constants11utf_7_bom_4E
_sass.abi3.so:_ZN4Sass9Constants11utf_7_bom_5E
_sass.abi3.so:_ZN4Sass9Constants11without_kwdE
_sass.abi3.so:_ZN4Sass9Constants12MaxCallStackE
_sass.abi3.so:_ZN4Sass9Constants12arglist_nameE
_sass.abi3.so:_ZN4Sass9Constants12dollar_equalE
_sass.abi3.so:_ZN4Sass9Constants12function_kwdE
_sass.abi3.so:_ZN4Sass9Constants12gb_18030_bomE
_sass.abi3.so:_ZN4Sass9Constants12numeric_nameE
_sass.abi3.so:_ZN4Sass9Constants12optional_kwdE
_sass.abi3.so:_ZN4Sass9Constants12sel_deep_kwdE
_sass.abi3.so:_ZN4Sass9Constants12supports_kwdE
_sass.abi3.so:_ZN4Sass9Constants13important_kwdE
_sass.abi3.so:_ZN4Sass9Constants13keyframes_kwdE
_sass.abi3.so:_ZN4Sass9Constants13utf_16_bom_beE
_sass.abi3.so:_ZN4Sass9Constants13utf_16_bom_leE
_sass.abi3.so:_ZN4Sass9Constants13utf_32_bom_beE
_sass.abi3.so:_ZN4Sass9Constants13utf_32_bom_leE
_sass.abi3.so:_ZN4Sass9Constants13vendor_ms_kwdE
_sass.abi3.so:_ZN4Sass9Constants14Specificity_IDE
_sass.abi3.so:_ZN4Sass9Constants14dimension_nameE
_sass.abi3.so:_ZN4Sass9Constants14expression_kwdE
_sass.abi3.so:_ZN4Sass9Constants14real_uri_charsE
_sass.abi3.so:_ZN4Sass9Constants14utf_ebcdic_bomE
_sass.abi3.so:_ZN4Sass9Constants15percentage_nameE
_sass.abi3.so:_ZN4Sass9Constants16Specificity_AttrE
_sass.abi3.so:_ZN4Sass9Constants16Specificity_BaseE
_sass.abi3.so:_ZN4Sass9Constants16Specificity_StarE
_sass.abi3.so:_ZN4Sass9Constants16vendor_khtml_kwdE
_sass.abi3.so:_ZN4Sass9Constants16vendor_opera_kwdE
_sass.abi3.so:_ZN4Sass9Constants17Specificity_ClassE
_sass.abi3.so:_ZN4Sass9Constants17if_after_else_kwdE
_sass.abi3.so:_ZN4Sass9Constants17pseudo_not_fn_kwdE
_sass.abi3.so:_ZN4Sass9Constants17vendor_webkit_kwdE
_sass.abi3.so:_ZN4Sass9Constants18Specificity_PseudoE
_sass.abi3.so:_ZN4Sass9Constants18vendor_mozilla_kwdE
_sass.abi3.so:_ZN4Sass9Constants19Specificity_ElementE
_sass.abi3.so:_ZN4Sass9Constants19UnificationOrder_IdE
_sass.abi3.so:_ZN4Sass9Constants20selector_list_delimsE
_sass.abi3.so:_ZN4Sass9Constants21Specificity_UniversalE
_sass.abi3.so:_ZN4Sass9Constants22UnificationOrder_ClassE
_sass.abi3.so:_ZN4Sass9Constants22almost_any_value_classE
_sass.abi3.so:_ZN4Sass9Constants22selector_lookahead_opsE
_sass.abi3.so:_ZN4Sass9Constants23complex_selector_delimsE
_sass.abi3.so:_ZN4Sass9Constants23selector_combinator_opsE
_sass.abi3.so:_ZN4Sass9Constants24UnificationOrder_ElementE
_sass.abi3.so:_ZN4Sass9Constants24UnificationOrder_WrappedE
_sass.abi3.so:_ZN4Sass9Constants25selector_combinator_childE
_sass.abi3.so:_ZN4Sass9Constants26UnificationOrder_AttributeE
_sass.abi3.so:_ZN4Sass9Constants27attribute_compare_modifiersE
_sass.abi3.so:_ZN4Sass9Constants27selector_combinator_generalE
_sass.abi3.so:_ZN4Sass9Constants28UnificationOrder_PlaceholderE
_sass.abi3.so:_ZN4Sass9Constants28UnificationOrder_PseudoClassE
_sass.abi3.so:_ZN4Sass9Constants28selector_combinator_adjacentE
_sass.abi3.so:_ZN4Sass9Constants2eqE
_sass.abi3.so:_ZN4Sass9Constants2gtE
_sass.abi3.so:_ZN4Sass9Constants2ltE
_sass.abi3.so:_ZN4Sass9Constants30UnificationOrder_PseudoElementE
_sass.abi3.so:_ZN4Sass9Constants3gteE
_sass.abi3.so:_ZN4Sass9Constants3lteE
_sass.abi3.so:_ZN4Sass9Constants3neqE
_sass.abi3.so:_ZN4Sass9Constants5s_kwdE
_sass.abi3.so:_ZN4Sass9Constants6Hz_kwdE
_sass.abi3.so:_ZN4Sass9Constants6cm_kwdE
_sass.abi3.so:_ZN4Sass9Constants6em_kwdE
_sass.abi3.so:_ZN4Sass9Constants6ex_kwdE
_sass.abi3.so:_ZN4Sass9Constants6hyphenE
_sass.abi3.so:_ZN4Sass9Constants6if_kwdE
_sass.abi3.so:_ZN4Sass9Constants6in_kwdE
_sass.abi3.so:_ZN4Sass9Constants6mm_kwdE
_sass.abi3.so:_ZN4Sass9Constants6ms_kwdE
_sass.abi3.so:_ZN4Sass9Constants6of_kwdE
_sass.abi3.so:_ZN4Sass9Constants6or_kwdE
_sass.abi3.so:_ZN4Sass9Constants6pc_kwdE
_sass.abi3.so:_ZN4Sass9Constants6pt_kwdE
_sass.abi3.so:_ZN4Sass9Constants6px_kwdE
_sass.abi3.so:_ZN4Sass9Constants6rbraceE
_sass.abi3.so:_ZN4Sass9Constants6rparenE
_sass.abi3.so:_ZN4Sass9Constants6to_kwdE
_sass.abi3.so:_ZN4Sass9Constants7all_kwdE
_sass.abi3.so:_ZN4Sass9Constants7and_kwdE
_sass.abi3.so:_ZN4Sass9Constants7deg_kwdE
_sass.abi3.so:_ZN4Sass9Constants7for_kwdE
_sass.abi3.so:_ZN4Sass9Constants7kHz_kwdE
_sass.abi3.so:_ZN4Sass9Constants7not_kwdE
_sass.abi3.so:_ZN4Sass9Constants7odd_kwdE
_sass.abi3.so:_ZN4Sass9Constants7rad_kwdE
_sass.abi3.so:_ZN4Sass9Constants7url_kwdE
_sass.abi3.so:_ZN4Sass9Constants8each_kwdE
_sass.abi3.so:_ZN4Sass9Constants8ellipsisE
_sass.abi3.so:_ZN4Sass9Constants8else_kwdE
_sass.abi3.so:_ZN4Sass9Constants8even_kwdE
_sass.abi3.so:_ZN4Sass9Constants8from_kwdE
_sass.abi3.so:_ZN4Sass9Constants8grad_kwdE
_sass.abi3.so:_ZN4Sass9Constants8map_nameE
_sass.abi3.so:_ZN4Sass9Constants8null_kwdE
_sass.abi3.so:_ZN4Sass9Constants8only_kwdE
_sass.abi3.so:_ZN4Sass9Constants8op_charsE
_sass.abi3.so:_ZN4Sass9Constants8rule_kwdE
_sass.abi3.so:_ZN4Sass9Constants8scsu_bomE
_sass.abi3.so:_ZN4Sass9Constants8true_kwdE
_sass.abi3.so:_ZN4Sass9Constants8turn_kwdE
_sass.abi3.so:_ZN4Sass9Constants8warn_kwdE
_sass.abi3.so:_ZN4Sass9Constants8with_kwdE
_sass.abi3.so:_ZN4Sass9Constants9bool_nameE
_sass.abi3.so:_ZN4Sass9Constants9debug_kwdE
_sass.abi3.so:_ZN4Sass9Constants9empty_strE
_sass.abi3.so:_ZN4Sass9Constants9error_kwdE
_sass.abi3.so:_ZN4Sass9Constants9false_kwdE
_sass.abi3.so:_ZN4Sass9Constants9list_nameE
_sass.abi3.so:_ZN4Sass9Constants9media_kwdE
_sass.abi3.so:_ZN4Sass9Constants9mixin_kwdE
_sass.abi3.so:_ZN4Sass9Constants9uri_charsE
_sass.abi3.so:_ZN4Sass9Constants9using_kwdE
_sass.abi3.so:_ZN4Sass9Constants9utf_1_bomE
_sass.abi3.so:_ZN4Sass9Constants9utf_8_bomE
_sass.abi3.so:_ZN4Sass9Constants9while_kwdE
_sass.abi3.so:_ZN4Sass9DebugRuleC1ENS_10SourceSpanENS_10SharedImplINS_10ExpressionEEE
_sass.abi3.so:_ZN4Sass9DebugRuleC1EPKS0_
_sass.abi3.so:_ZN4Sass9DebugRuleC2ENS_10SourceSpanENS_10SharedImplINS_10ExpressionEEE
_sass.abi3.so:_ZN4Sass9DebugRuleC2EPKS0_
_sass.abi3.so:_ZN4Sass9ErrorRuleC1ENS_10SourceSpanENS_10SharedImplINS_10ExpressionEEE
_sass.abi3.so:_ZN4Sass9ErrorRuleC1EPKS0_
_sass.abi3.so:_ZN4Sass9ErrorRuleC2ENS_10SourceSpanENS_10SharedImplINS_10ExpressionEEE
_sass.abi3.so:_ZN4Sass9ErrorRuleC2EPKS0_
_sass.abi3.so:_ZN4Sass9Exception10StackErrorC1ESt6vectorINS_9BacktraceESaIS3_EERKNS_8AST_NodeE
_sass.abi3.so:_ZN4Sass9Exception10StackErrorC2ESt6vectorINS_9BacktraceESaIS3_EERKNS_8AST_NodeE
_sass.abi3.so:_ZN4Sass9Exception11InvalidSassC1ENS_10SourceSpanESt6vectorINS_9BacktraceESaIS4_EENSt7__cxx1112basic_stringIcSt11char_traitsIcESaIcEEE
_sass.abi3.so:_ZN4Sass9Exception11InvalidSassC2ENS_10SourceSpanESt6vectorINS_9BacktraceESaIS4_EENSt7__cxx1112basic_stringIcSt11char_traitsIcESaIcEEE
_sass.abi3.so:_ZN4Sass9Exception12InvalidValueC1ESt6vectorINS_9BacktraceESaIS3_EERKNS_10ExpressionE
_sass.abi3.so:_ZN4Sass9Exception12InvalidValueC2ESt6vectorINS_9BacktraceESaIS3_EERKNS_10ExpressionE
_sass.abi3.so:_ZN4Sass9Exception12TypeMismatchC1ESt6vectorINS_9BacktraceESaIS3_EERKNS_10ExpressionENSt7__cxx1112basic_stringIcSt11char_traitsIcESaIcEEE
_sass.abi3.so:_ZN4Sass9Exception12TypeMismatchC2ESt6vectorINS_9BacktraceESaIS3_EERKNS_10ExpressionENSt7__cxx1112basic_stringIcSt11char_traitsIcESaIcEEE
_sass.abi3.so:_ZN4Sass9Exception13InvalidParentC1EPNS_8SelectorESt6vectorINS_9BacktraceESaIS5_EES3_
_sass.abi3.so:_ZN4Sass9Exception13InvalidParentC2EPNS_8SelectorESt6vectorINS_9BacktraceESaIS5_EES3_
_sass.abi3.so:_ZN4Sass9Exception13InvalidSyntaxC1ENS_10SourceSpanESt6vectorINS_9BacktraceESaIS4_EENSt7__cxx1112basic_stringIcSt11char_traitsIcESaIcEEE
_sass.abi3.so:_ZN4Sass9Exception13InvalidSyntaxC2ENS_10SourceSpanESt6vectorINS_9BacktraceESaIS4_EENSt7__cxx1112basic_stringIcSt11char_traitsIcESaIcEEE
_sass.abi3.so:_ZN4Sass9Exception14SassValueErrorC1ESt6vectorINS_9BacktraceESaIS3_EENS_10SourceSpanERNS0_14OperationErrorE
_sass.abi3.so:_ZN4Sass9Exception14SassValueErrorC2ESt6vectorINS_9BacktraceESaIS3_EENS_10SourceSpanERNS0_14OperationErrorE
_sass.abi3.so:_ZN4Sass9Exception14TopLevelParentC1ESt6vectorINS_9BacktraceESaIS3_EENS_10SourceSpanE
_sass.abi3.so:_ZN4Sass9Exception14TopLevelParentC2ESt6vectorINS_9BacktraceESaIS3_EENS_10SourceSpanE
_sass.abi3.so:_ZN4Sass9Exception15MissingArgumentC1ENS_10SourceSpanESt6vectorINS_9BacktraceESaIS4_EENSt7__cxx1112basic_stringIcSt11char_traitsIcESaIcEEESC_SC_
_sass.abi3.so:_ZN4Sass9Exception15MissingArgumentC2ENS_10SourceSpanESt6vectorINS_9BacktraceESaIS4_EENSt7__cxx1112basic_stringIcSt11char_traitsIcESaIcEEESC_SC_
_sass.abi3.so:_ZN4Sass9Exception17DuplicateKeyErrorC1ESt6vectorINS_9BacktraceESaIS3_EERKNS_3MapERKNS_10ExpressionE
_sass.abi3.so:_ZN4Sass9Exception17DuplicateKeyErrorC2ESt6vectorINS_9BacktraceESaIS3_EERKNS_3MapERKNS_10ExpressionE
_sass.abi3.so:_ZN4Sass9Exception17ExtendAcrossMediaC1ESt6vectorINS_9BacktraceESaIS3_EENS_9ExtensionE
_sass.abi3.so:_ZN4Sass9Exception17ExtendAcrossMediaC2ESt6vectorINS_9BacktraceESaIS3_EENS_9ExtensionE
_sass.abi3.so:_ZN4Sass9Exception17IncompatibleUnitsC1ENS_8UnitTypeES2_
_sass.abi3.so:_ZN4Sass9Exception17IncompatibleUnitsC1ERKNS_5UnitsES4_
_sass.abi3.so:_ZN4Sass9Exception17IncompatibleUnitsC2ENS_8UnitTypeES2_
_sass.abi3.so:_ZN4Sass9Exception17IncompatibleUnitsC2ERKNS_5UnitsES4_
_sass.abi3.so:_ZN4Sass9Exception17InvalidVarKwdTypeC1ENS_10SourceSpanESt6vectorINS_9BacktraceESaIS4_EENSt7__cxx1112basic_stringIcSt11char_traitsIcESaIcEEEPKNS_8ArgumentE
_sass.abi3.so:_ZN4Sass9Exception17InvalidVarKwdTypeC2ENS_10SourceSpanESt6vectorINS_9BacktraceESaIS4_EENSt7__cxx1112basic_stringIcSt11char_traitsIcESaIcEEEPKNS_8ArgumentE
_sass.abi3.so:_ZN4Sass9Exception17NestingLimitErrorC1ENS_10SourceSpanESt6vectorINS_9BacktraceESaIS4_EENSt7__cxx1112basic_stringIcSt11char_traitsIcESaIcEEE
_sass.abi3.so:_ZN4Sass9Exception17NestingLimitErrorC2ENS_10SourceSpanESt6vectorINS_9BacktraceESaIS4_EENSt7__cxx1112basic_stringIcSt11char_traitsIcESaIcEEE
_sass.abi3.so:_ZN4Sass9Exception17UnsatisfiedExtendC1ESt6vectorINS_9BacktraceESaIS3_EENS_9ExtensionE
_sass.abi3.so:_ZN4Sass9Exception17UnsatisfiedExtendC2ESt6vectorINS_9BacktraceESaIS3_EENS_9ExtensionE
_sass.abi3.so:_ZN4Sass9Exception17ZeroDivisionErrorC1ERKNS_10ExpressionES4_
_sass.abi3.so:_ZN4Sass9Exception17ZeroDivisionErrorC2ERKNS_10ExpressionES4_
_sass.abi3.so:_ZN4Sass9Exception18EndlessExtendErrorC1ESt6vectorINS_9BacktraceESaIS3_EERKNS_8AST_NodeE
_sass.abi3.so:_ZN4Sass9Exception18EndlessExtendErrorC2ESt6vectorINS_9BacktraceESaIS3_EERKNS_8AST_NodeE
_sass.abi3.so:_ZN4Sass9Exception18UndefinedOperationC1EPKNS_10ExpressionES4_7Sass_OP
_sass.abi3.so:_ZN4Sass9Exception18UndefinedOperationC2EPKNS_10ExpressionES4_7Sass_OP
_sass.abi3.so:_ZN4Sass9Exception19InvalidArgumentTypeC1ENS_10SourceSpanESt6vectorINS_9BacktraceESaIS4_EENSt7__cxx1112basic_stringIcSt11char_traitsIcESaIcEEESC_SC_PKNS_5ValueE
_sass.abi3.so:_ZN4Sass9Exception19InvalidArgumentTypeC2ENS_10SourceSpanESt6vectorINS_9BacktraceESaIS4_EENSt7__cxx1112basic_stringIcSt11char_traitsIcESaIcEEESC_SC_PKNS_5ValueE
_sass.abi3.so:_ZN4Sass9Exception20InvalidNullOperationC1EPKNS_10ExpressionES4_7Sass_OP
_sass.abi3.so:_ZN4Sass9Exception20InvalidNullOperationC2EPKNS_10ExpressionES4_7Sass_OP
_sass.abi3.so:_ZN4Sass9Exception21AlphaChannelsNotEqualC1EPKNS_10ExpressionES4_7Sass_OP
_sass.abi3.so:_ZN4Sass9Exception21AlphaChannelsNotEqualC2EPKNS_10ExpressionES4_7Sass_OP
_sass.abi3.so:_ZN4Sass9Exception4BaseC1ENS_10SourceSpanENSt7__cxx1112basic_stringIcSt11char_traitsIcESaIcEEESt6vectorINS_9BacktraceESaISA_EE
_sass.abi3.so:_ZN4Sass9Exception4BaseC2ENS_10SourceSpanENSt7__cxx1112basic_stringIcSt11char_traitsIcESaIcEEESt6vectorINS_9BacktraceESaISA_EE
_sass.abi3.so:_ZN4Sass9Functions10adjust_hueERNS_11EnvironmentINS_10SharedImplINS_8AST_NodeEEEEES6_RNS_7ContextEPKcNS_10SourceSpanERSt6vectorINS_9BacktraceESaISD_EESC_INS2_INS_12SelectorListEEESaISI_EESK_
_sass.abi3.so:_ZN4Sass9Functions10append_sigE
_sass.abi3.so:_ZN4Sass9Functions10comparableERNS_11EnvironmentINS_10SharedImplINS_8AST_NodeEEEEES6_RNS_7ContextEPKcNS_10SourceSpanERSt6vectorINS_9BacktraceESaISD_EESC_INS2_INS_12SelectorListEEESaISI_EESK_
_sass.abi3.so:_ZN4Sass9Functions10complementERNS_11EnvironmentINS_10SharedImplINS_8AST_NodeEEEEES6_RNS_7ContextEPKcNS_10SourceSpanERSt6vectorINS_9BacktraceESaISD_EESC_INS2_INS_12SelectorListEEESaISI_EESK_
_sass.abi3.so:_ZN4Sass9Functions10darken_sigE
_sass.abi3.so:_ZN4Sass9Functions10desaturateERNS_11EnvironmentINS_10SharedImplINS_8AST_NodeEEEEES6_RNS_7ContextEPKcNS_10SourceSpanERSt6vectorINS_9BacktraceESaISD_EESC_INS2_INS_12SelectorListEEESaISI_EESK_
_sass.abi3.so:_ZN4Sass9Functions10ie_hex_strERNS_11EnvironmentINS_10SharedImplINS_8AST_NodeEEEEES6_RNS_7ContextEPKcNS_10SourceSpanERSt6vectorINS_9BacktraceESaISD_EESC_INS2_INS_12SelectorListEEESaISI_EESK_
_sass.abi3.so:_ZN4Sass9Functions10invert_sigE
_sass.abi3.so:_ZN4Sass9Functions10length_sigE
_sass.abi3.so:_ZN4Sass9Functions10map_removeERNS_11EnvironmentINS_10SharedImplINS_8AST_NodeEEEEES6_RNS_7ContextEPKcNS_10SourceSpanERSt6vectorINS_9BacktraceESaISD_EESC_INS2_INS_12SelectorListEEESaISI_EESK_
_sass.abi3.so:_ZN4Sass9Functions10map_valuesERNS_11EnvironmentINS_10SharedImplINS_8AST_NodeEEEEES6_RNS_7ContextEPKcNS_10SourceSpanERSt6vectorINS_9BacktraceESaISD_EESC_INS2_INS_12SelectorListEEESaISI_EESK_
_sass.abi3.so:_ZN4Sass9Functions10percentageERNS_11EnvironmentINS_10SharedImplINS_8AST_NodeEEEEES6_RNS_7ContextEPKcNS_10SourceSpanERSt6vectorINS_9BacktraceESaISD_EESC_INS2_INS_12SelectorListEEESaISI_EESK_
_sass.abi3.so:_ZN4Sass9Functions10random_sigE
_sass.abi3.so:_ZN4Sass9Functions10rgba_2_sigE
_sass.abi3.so:_ZN4Sass9Functions10rgba_4_sigE
_sass.abi3.so:_ZN4Sass9Functions10sass_quoteERNS_11EnvironmentINS_10SharedImplINS_8AST_NodeEEEEES6_RNS_7ContextEPKcNS_10SourceSpanERSt6vectorINS_9BacktraceESaISD_EESC_INS2_INS_12SelectorListEEESaISI_EESK_
_sass.abi3.so:_ZN4Sass9Functions10saturationERNS_11EnvironmentINS_10SharedImplINS_8AST_NodeEEEEES6_RNS_7ContextEPKcNS_10SourceSpanERSt6vectorINS_9BacktraceESaISD_EESC_INS2_INS_12SelectorListEEESaISI_EESK_
_sass.abi3.so:_ZN4Sass9Functions10str_insertERNS_11EnvironmentINS_10SharedImplINS_8AST_NodeEEEEES6_RNS_7ContextEPKcNS_10SourceSpanERSt6vectorINS_9BacktraceESaISD_EESC_INS2_INS_12SelectorListEEESaISI_EESK_
_sass.abi3.so:_ZN4Sass9Functions10str_lengthERNS_11EnvironmentINS_10SharedImplINS_8AST_NodeEEEEES6_RNS_7ContextEPKcNS_10SourceSpanERSt6vectorINS_9BacktraceESaISD_EESC_INS2_INS_12SelectorListEEESaISI_EESK_
_sass.abi3.so:_ZN4Sass9Functions11fade_in_sigE
_sass.abi3.so:_ZN4Sass9Functions11get_arg_selERKNSt7__cxx1112basic_stringIcSt11char_traitsIcESaIcEEERNS_11EnvironmentINS_10SharedImplINS_8AST_NodeEEEEEPKcNS_10SourceSpanESt6vectorINS_9BacktraceESaISJ_EERNS_7ContextE
_sass.abi3.so:_ZN4Sass9Functions11get_arg_valERKNSt7__cxx1112basic_stringIcSt11char_traitsIcESaIcEEERNS_11EnvironmentINS_10SharedImplINS_8AST_NodeEEEEEPKcNS_10SourceSpanESt6vectorINS_9BacktraceESaISJ_EE
_sass.abi3.so:_ZN4Sass9Functions11inspect_sigE
_sass.abi3.so:_ZN4Sass9Functions11lighten_sigE
_sass.abi3.so:_ZN4Sass9Functions11map_get_sigE
_sass.abi3.so:_ZN4Sass9Functions11map_has_keyERNS_11EnvironmentINS_10SharedImplINS_8AST_NodeEEEEES6_RNS_7ContextEPKcNS_10SourceSpanERSt6vectorINS_9BacktraceESaISD_EESC_INS2_INS_12SelectorListEEESaISI_EESK_
_sass.abi3.so:_ZN4Sass9Functions11opacify_sigE
_sass.abi3.so:_ZN4Sass9Functions11opacity_sigE
_sass.abi3.so:_ZN4Sass9Functions11scale_colorERNS_11EnvironmentINS_10SharedImplINS_8AST_NodeEEEEES6_RNS_7ContextEPKcNS_10SourceSpanERSt6vectorINS_9BacktraceESaISD_EESC_INS2_INS_12SelectorListEEESaISI_EESK_
_sass.abi3.so:_ZN4Sass9Functions11set_nth_sigE
_sass.abi3.so:_ZN4Sass9Functions11type_of_sigE
_sass.abi3.so:_ZN4Sass9Functions11unquote_sigE
_sass.abi3.so:_ZN4Sass9Functions12adjust_colorERNS_11EnvironmentINS_10SharedImplINS_8AST_NodeEEEEES6_RNS_7ContextEPKcNS_10SourceSpanERSt6vectorINS_9BacktraceESaISD_EESC_INS2_INS_12SelectorListEEESaISI_EESK_
_sass.abi3.so:_ZN4Sass9Functions12change_colorERNS_11EnvironmentINS_10SharedImplINS_8AST_NodeEEEEES6_RNS_7ContextEPKcNS_10SourceSpanERSt6vectorINS_9BacktraceESaISD_EESC_INS2_INS_12SelectorListEEESaISI_EESK_
_sass.abi3.so:_ZN4Sass9Functions12fade_out_sigE
_sass.abi3.so:_ZN4Sass9Functions12get_arg_selsERKNSt7__cxx1112basic_stringIcSt11char_traitsIcESaIcEEERNS_11EnvironmentINS_10SharedImplINS_8AST_NodeEEEEEPKcNS_10SourceSpanESt6vectorINS_9BacktraceESaISJ_EERNS_7ContextE
_sass.abi3.so:_ZN4Sass9Functions12get_functionERNS_11EnvironmentINS_10SharedImplINS_8AST_NodeEEEEES6_RNS_7ContextEPKcNS_10SourceSpanERSt6vectorINS_9BacktraceESaISD_EESC_INS2_INS_12SelectorListEEESaISI_EESK_
_sass.abi3.so:_ZN4Sass9Functions12is_bracketedERNS_11EnvironmentINS_10SharedImplINS_8AST_NodeEEEEES6_RNS_7ContextEPKcNS_10SourceSpanERSt6vectorINS_9BacktraceESaISD_EESC_INS2_INS_12SelectorListEEESaISI_EESK_
_sass.abi3.so:_ZN4Sass9Functions12keywords_sigE
_sass.abi3.so:_ZN4Sass9Functions12map_keys_sigE
_sass.abi3.so:_ZN4Sass9Functions12mixin_existsERNS_11EnvironmentINS_10SharedImplINS_8AST_NodeEEEEES6_RNS_7ContextEPKcNS_10SourceSpanERSt6vectorINS_9BacktraceESaISD_EESC_INS2_INS_12SelectorListEEESaISI_EESK_
_sass.abi3.so:_ZN4Sass9Functions12sass_unquoteERNS_11EnvironmentINS_10SharedImplINS_8AST_NodeEEEEES6_RNS_7ContextEPKcNS_10SourceSpanERSt6vectorINS_9BacktraceESaISD_EESC_INS2_INS_12SelectorListEEESaISI_EESK_
_sass.abi3.so:_ZN4Sass9Functions12saturate_sigE
_sass.abi3.so:_ZN4Sass9Functions12unitless_sigE
_sass.abi3.so:_ZN4Sass9Functions13function_nameB5cxx11EPKc
_sass.abi3.so:_ZN4Sass9Functions13grayscale_sigE
_sass.abi3.so:_ZN4Sass9Functions13lightness_sigE
_sass.abi3.so:_ZN4Sass9Functions13map_merge_sigE
_sass.abi3.so:_ZN4Sass9Functions13selector_nestERNS_11EnvironmentINS_10SharedImplINS_8AST_NodeEEEEES6_RNS_7ContextEPKcNS_10SourceSpanERSt6vectorINS_9BacktraceESaISD_EESC_INS2_INS_12SelectorListEEESaISI_EESK_
_sass.abi3.so:_ZN4Sass9Functions13str_index_sigE
_sass.abi3.so:_ZN4Sass9Functions13str_slice_sigE
_sass.abi3.so:_ZN4Sass9Functions13to_lower_caseERNS_11EnvironmentINS_10SharedImplINS_8AST_NodeEEEEES6_RNS_7ContextEPKcNS_10SourceSpanERSt6vectorINS_9BacktraceESaISD_EESC_INS2_INS_12SelectorListEEESaISI_EESK_
_sass.abi3.so:_ZN4Sass9Functions13to_upper_caseERNS_11EnvironmentINS_10SharedImplINS_8AST_NodeEEEEES6_RNS_7ContextEPKcNS_10SourceSpanERSt6vectorINS_9BacktraceESaISD_EESC_INS2_INS_12SelectorListEEESaISI_EESK_
_sass.abi3.so:_ZN4Sass9Functions13unique_id_sigE
_sass.abi3.so:_ZN4Sass9Functions14adjust_hue_sigE
_sass.abi3.so:_ZN4Sass9Functions14comparable_sigE
_sass.abi3.so:_ZN4Sass9Functions14complement_sigE
_sass.abi3.so:_ZN4Sass9Functions14content_existsERNS_11EnvironmentINS_10SharedImplINS_8AST_NodeEEEEES6_RNS_7ContextEPKcNS_10SourceSpanERSt6vectorINS_9BacktraceESaISD_EESC_INS2_INS_12SelectorListEEESaISI_EESK_
_sass.abi3.so:_ZN4Sass9Functions14desaturate_sigE
_sass.abi3.so:_ZN4Sass9Functions14feature_existsERNS_11EnvironmentINS_10SharedImplINS_8AST_NodeEEEEES6_RNS_7ContextEPKcNS_10SourceSpanERSt6vectorINS_9BacktraceESaISD_EESC_INS2_INS_12SelectorListEEESaISI_EESK_
_sass.abi3.so:_ZN4Sass9Functions14ie_hex_str_sigE
_sass.abi3.so:_ZN4Sass9Functions14list_separatorERNS_11EnvironmentINS_10SharedImplINS_8AST_NodeEEEEES6_RNS_7ContextEPKcNS_10SourceSpanERSt6vectorINS_9BacktraceESaISD_EESC_INS2_INS_12SelectorListEEESaISI_EESK_
_sass.abi3.so:_ZN4Sass9Functions14map_remove_sigE
_sass.abi3.so:_ZN4Sass9Functions14map_values_sigE
_sass.abi3.so:_ZN4Sass9Functions14percentage_sigE
_sass.abi3.so:_ZN4Sass9Functions14saturation_sigE
_sass.abi3.so:_ZN4Sass9Functions14selector_parseERNS_11EnvironmentINS_10SharedImplINS_8AST_NodeEEEEES6_RNS_7ContextEPKcNS_10SourceSpanERSt6vectorINS_9BacktraceESaISD_EESC_INS2_INS_12SelectorListEEESaISI_EESK_
_sass.abi3.so:_ZN4Sass9Functions14selector_unifyERNS_11EnvironmentINS_10SharedImplINS_8AST_NodeEEEEES6_RNS_7ContextEPKcNS_10SourceSpanERSt6vectorINS_9BacktraceESaISD_EESC_INS2_INS_12SelectorListEEESaISI_EESK_
_sass.abi3.so:_ZN4Sass9Functions14str_insert_sigE
_sass.abi3.so:_ZN4Sass9Functions14str_length_sigE
_sass.abi3.so:_ZN4Sass9Functions14transparentizeERNS_11EnvironmentINS_10SharedImplINS_8AST_NodeEEEEES6_RNS_7ContextEPKcNS_10SourceSpanERSt6vectorINS_9BacktraceESaISD_EESC_INS2_INS_12SelectorListEEESaISI_EESK_
_sass.abi3.so:_ZN4Sass9Functions15function_existsERNS_11EnvironmentINS_10SharedImplINS_8AST_NodeEEEEES6_RNS_7ContextEPKcNS_10SourceSpanERSt6vectorINS_9BacktraceESaISD_EESC_INS2_INS_12SelectorListEEESaISI_EESK_
_sass.abi3.so:_ZN4Sass9Functions15map_has_key_sigE
_sass.abi3.so:_ZN4Sass9Functions15scale_color_sigE
_sass.abi3.so:_ZN4Sass9Functions15selector_appendERNS_11EnvironmentINS_10SharedImplINS_8AST_NodeEEEEES6_RNS_7ContextEPKcNS_10SourceSpanERSt6vectorINS_9BacktraceESaISD_EESC_INS2_INS_12SelectorListEEESaISI_EESK_
_sass.abi3.so:_ZN4Sass9Functions15selector_extendERNS_11EnvironmentINS_10SharedImplINS_8AST_NodeEEEEES6_RNS_7ContextEPKcNS_10SourceSpanERSt6vectorINS_9BacktraceESaISD_EESC_INS2_INS_12SelectorListEEESaISI_EESK_
_sass.abi3.so:_ZN4Sass9Functions15string_argumentENS_10SharedImplINS_8AST_NodeEEE
_sass.abi3.so:_ZN4Sass9Functions15variable_existsERNS_11EnvironmentINS_10SharedImplINS_8AST_NodeEEEEES6_RNS_7ContextEPKcNS_10SourceSpanERSt6vectorINS_9BacktraceESaISD_EESC_INS2_INS_12SelectorListEEESaISI_EESK_
_sass.abi3.so:_ZN4Sass9Functions16adjust_color_sigE
_sass.abi3.so:_ZN4Sass9Functions16change_color_sigE
_sass.abi3.so:_ZN4Sass9Functions16get_function_sigE
_sass.abi3.so:_ZN4Sass9Functions16is_bracketed_sigE
_sass.abi3.so:_ZN4Sass9Functions16is_superselectorERNS_11EnvironmentINS_10SharedImplINS_8AST_NodeEEEEES6_RNS_7ContextEPKcNS_10SourceSpanERSt6vectorINS_9BacktraceESaISD_EESC_INS2_INS_12SelectorListEEESaISI_EESK_
_sass.abi3.so:_ZN4Sass9Functions16mixin_exists_sigE
_sass.abi3.so:_ZN4Sass9Functions16selector_replaceERNS_11EnvironmentINS_10SharedImplINS_8AST_NodeEEEEES6_RNS_7ContextEPKcNS_10SourceSpanERSt6vectorINS_9BacktraceESaISD_EESC_INS2_INS_12SelectorListEEESaISI_EESK_
_sass.abi3.so:_ZN4Sass9Functions16simple_selectorsERNS_11EnvironmentINS_10SharedImplINS_8AST_NodeEEEEES6_RNS_7ContextEPKcNS_10SourceSpanERSt6vectorINS_9BacktraceESaISD_EESC_INS2_INS_12SelectorListEEESaISI_EESK_
_sass.abi3.so:_ZN4Sass9Functions17handle_utf8_errorERKNS_10SourceSpanESt6vectorINS_9BacktraceESaIS5_EE
_sass.abi3.so:_ZN4Sass9Functions17selector_nest_sigE
_sass.abi3.so:_ZN4Sass9Functions17to_lower_case_sigE
_sass.abi3.so:_ZN4Sass9Functions17to_upper_case_sigE
_sass.abi3.so:_ZN4Sass9Functions18content_exists_sigE
_sass.abi3.so:_ZN4Sass9Functions18feature_exists_sigE
_sass.abi3.so:_ZN4Sass9Functions18list_separator_sigE
_sass.abi3.so:_ZN4Sass9Functions18selector_parse_sigE
_sass.abi3.so:_ZN4Sass9Functions18selector_unify_sigE
_sass.abi3.so:_ZN4Sass9Functions18transparentize_sigE
_sass.abi3.so:_ZN4Sass9Functions19function_exists_sigE
_sass.abi3.so:_ZN4Sass9Functions19selector_append_sigE
_sass.abi3.so:_ZN4Sass9Functions19selector_extend_sigE
_sass.abi3.so:_ZN4Sass9Functions19variable_exists_sigE
_sass.abi3.so:_ZN4Sass9Functions20is_superselector_sigE
_sass.abi3.so:_ZN4Sass9Functions20selector_replace_sigE
_sass.abi3.so:_ZN4Sass9Functions20simple_selectors_sigE
_sass.abi3.so:_ZN4Sass9Functions22global_variable_existsERNS_11EnvironmentINS_10SharedImplINS_8AST_NodeEEEEES6_RNS_7ContextEPKcNS_10SourceSpanERSt6vectorINS_9BacktraceESaISD_EESC_INS2_INS_12SelectorListEEESaISI_EESK_
_sass.abi3.so:_ZN4Sass9Functions26global_variable_exists_sigE
_sass.abi3.so:_ZN4Sass9Functions30hsla_alpha_percent_deprecationERKNS_10SourceSpanENSt7__cxx1112basic_stringIcSt11char_traitsIcESaIcEEE
_sass.abi3.so:_ZN4Sass9Functions3absERNS_11EnvironmentINS_10SharedImplINS_8AST_NodeEEEEES6_RNS_7ContextEPKcNS_10SourceSpanERSt6vectorINS_9BacktraceESaISD_EESC_INS2_INS_12SelectorListEEESaISI_EESK_
_sass.abi3.so:_ZN4Sass9Functions3hslERNS_11EnvironmentINS_10SharedImplINS_8AST_NodeEEEEES6_RNS_7ContextEPKcNS_10SourceSpanERSt6vectorINS_9BacktraceESaISD_EESC_INS2_INS_12SelectorListEEESaISI_EESK_
_sass.abi3.so:_ZN4Sass9Functions3hueERNS_11EnvironmentINS_10SharedImplINS_8AST_NodeEEEEES6_RNS_7ContextEPKcNS_10SourceSpanERSt6vectorINS_9BacktraceESaISD_EESC_INS2_INS_12SelectorListEEESaISI_EESK_
_sass.abi3.so:_ZN4Sass9Functions3maxERNS_11EnvironmentINS_10SharedImplINS_8AST_NodeEEEEES6_RNS_7ContextEPKcNS_10SourceSpanERSt6vectorINS_9BacktraceESaISD_EESC_INS2_INS_12SelectorListEEESaISI_EESK_
_sass.abi3.so:_ZN4Sass9Functions3minERNS_11EnvironmentINS_10SharedImplINS_8AST_NodeEEEEES6_RNS_7ContextEPKcNS_10SourceSpanERSt6vectorINS_9BacktraceESaISD_EESC_INS2_INS_12SelectorListEEESaISI_EESK_
_sass.abi3.so:_ZN4Sass9Functions3mixERNS_11EnvironmentINS_10SharedImplINS_8AST_NodeEEEEES6_RNS_7ContextEPKcNS_10SourceSpanERSt6vectorINS_9BacktraceESaISD_EESC_INS2_INS_12SelectorListEEESaISI_EESK_
_sass.abi3.so:_ZN4Sass9Functions3nthERNS_11EnvironmentINS_10SharedImplINS_8AST_NodeEEEEES6_RNS_7ContextEPKcNS_10SourceSpanERSt6vectorINS_9BacktraceESaISD_EESC_INS2_INS_12SelectorListEEESaISI_EESK_
_sass.abi3.so:_ZN4Sass9Functions3redERNS_11EnvironmentINS_10SharedImplINS_8AST_NodeEEEEES6_RNS_7ContextEPKcNS_10SourceSpanERSt6vectorINS_9BacktraceESaISD_EESC_INS2_INS_12SelectorListEEESaISI_EESK_
_sass.abi3.so:_ZN4Sass9Functions3rgbERNS_11EnvironmentINS_10SharedImplINS_8AST_NodeEEEEES6_RNS_7ContextEPKcNS_10SourceSpanERSt6vectorINS_9BacktraceESaISD_EESC_INS2_INS_12SelectorListEEESaISI_EESK_
_sass.abi3.so:_ZN4Sass9Functions3zipERNS_11EnvironmentINS_10SharedImplINS_8AST_NodeEEEEES6_RNS_7ContextEPKcNS_10SourceSpanERSt6vectorINS_9BacktraceESaISD_EESC_INS2_INS_12SelectorListEEESaISI_EESK_
_sass.abi3.so:_ZN4Sass9Functions4blueERNS_11EnvironmentINS_10SharedImplINS_8AST_NodeEEEEES6_RNS_7ContextEPKcNS_10SourceSpanERSt6vectorINS_9BacktraceESaISD_EESC_INS2_INS_12SelectorListEEESaISI_EESK_
_sass.abi3.so:_ZN4Sass9Functions4callERNS_11EnvironmentINS_10SharedImplINS_8AST_NodeEEEEES6_RNS_7ContextEPKcNS_10SourceSpanERSt6vectorINS_9BacktraceESaISD_EESC_INS2_INS_12SelectorListEEESaISI_EESK_
_sass.abi3.so:_ZN4Sass9Functions4ceilERNS_11EnvironmentINS_10SharedImplINS_8AST_NodeEEEEES6_RNS_7ContextEPKcNS_10SourceSpanERSt6vectorINS_9BacktraceESaISD_EESC_INS2_INS_12SelectorListEEESaISI_EESK_
_sass.abi3.so:_ZN4Sass9Functions4hslaERNS_11EnvironmentINS_10SharedImplINS_8AST_NodeEEEEES6_RNS_7ContextEPKcNS_10SourceSpanERSt6vectorINS_9BacktraceESaISD_EESC_INS2_INS_12SelectorListEEESaISI_EESK_
_sass.abi3.so:_ZN4Sass9Functions4joinERNS_11EnvironmentINS_10SharedImplINS_8AST_NodeEEEEES6_RNS_7ContextEPKcNS_10SourceSpanERSt6vectorINS_9BacktraceESaISD_EESC_INS2_INS_12SelectorListEEESaISI_EESK_
_sass.abi3.so:_ZN4Sass9Functions4unitERNS_11EnvironmentINS_10SharedImplINS_8AST_NodeEEEEES6_RNS_7ContextEPKcNS_10SourceSpanERSt6vectorINS_9BacktraceESaISD_EESC_INS2_INS_12SelectorListEEESaISI_EESK_
_sass.abi3.so:_ZN4Sass9Functions5alphaERNS_11EnvironmentINS_10SharedImplINS_8AST_NodeEEEEES6_RNS_7ContextEPKcNS_10SourceSpanERSt6vectorINS_9BacktraceESaISD_EESC_INS2_INS_12SelectorListEEESaISI_EESK_
_sass.abi3.so:_ZN4Sass9Functions5floorERNS_11EnvironmentINS_10SharedImplINS_8AST_NodeEEEEES6_RNS_7ContextEPKcNS_10SourceSpanERSt6vectorINS_9BacktraceESaISD_EESC_INS2_INS_12SelectorListEEESaISI_EESK_
_sass.abi3.so:_ZN4Sass9Functions5greenERNS_11EnvironmentINS_10SharedImplINS_8AST_NodeEEEEES6_RNS_7ContextEPKcNS_10SourceSpanERSt6vectorINS_9BacktraceESaISD_EESC_INS2_INS_12SelectorListEEESaISI_EESK_
_sass.abi3.so:_ZN4Sass9Functions5indexERNS_11EnvironmentINS_10SharedImplINS_8AST_NodeEEEEES6_RNS_7ContextEPKcNS_10SourceSpanERSt6vectorINS_9BacktraceESaISD_EESC_INS2_INS_12SelectorListEEESaISI_EESK_
_sass.abi3.so:_ZN4Sass9Functions5roundERNS_11EnvironmentINS_10SharedImplINS_8AST_NodeEEEEES6_RNS_7ContextEPKcNS_10SourceSpanERSt6vectorINS_9BacktraceESaISD_EESC_INS2_INS_12SelectorListEEESaISI_EESK_
_sass.abi3.so:_ZN4Sass9Functions6appendERNS_11EnvironmentINS_10SharedImplINS_8AST_NodeEEEEES6_RNS_7ContextEPKcNS_10SourceSpanERSt6vectorINS_9BacktraceESaISD_EESC_INS2_INS_12SelectorListEEESaISI_EESK_
_sass.abi3.so:_ZN4Sass9Functions6darkenERNS_11EnvironmentINS_10SharedImplINS_8AST_NodeEEEEES6_RNS_7ContextEPKcNS_10SourceSpanERSt6vectorINS_9BacktraceESaISD_EESC_INS2_INS_12SelectorListEEESaISI_EESK_
_sass.abi3.so:_ZN4Sass9Functions6if_sigE
_sass.abi3.so:_ZN4Sass9Functions6invertERNS_11EnvironmentINS_10SharedImplINS_8AST_NodeEEEEES6_RNS_7ContextEPKcNS_10SourceSpanERSt6vectorINS_9BacktraceESaISD_EESC_INS2_INS_12SelectorListEEESaISI_EESK_
_sass.abi3.so:_ZN4Sass9Functions6lengthERNS_11EnvironmentINS_10SharedImplINS_8AST_NodeEEEEES6_RNS_7ContextEPKcNS_10SourceSpanERSt6vectorINS_9BacktraceESaISD_EESC_INS2_INS_12SelectorListEEESaISI_EESK_
_sass.abi3.so:_ZN4Sass9Functions6randomERNS_11EnvironmentINS_10SharedImplINS_8AST_NodeEEEEES6_RNS_7ContextEPKcNS_10SourceSpanERSt6vectorINS_9BacktraceESaISD_EESC_INS2_INS_12SelectorListEEESaISI_EESK_
_sass.abi3.so:_ZN4Sass9Functions6rgba_2ERNS_11EnvironmentINS_10SharedImplINS_8AST_NodeEEEEES6_RNS_7ContextEPKcNS_10SourceSpanERSt6vectorINS_9BacktraceESaISD_EESC_INS2_INS_12SelectorListEEESaISI_EESK_
_sass.abi3.so:_ZN4Sass9Functions6rgba_4ERNS_11EnvironmentINS_10SharedImplINS_8AST_NodeEEEEES6_RNS_7ContextEPKcNS_10SourceSpanERSt6vectorINS_9BacktraceESaISD_EESC_INS2_INS_12SelectorListEEESaISI_EESK_
_sass.abi3.so:_ZN4Sass9Functions7GetSeedEv
_sass.abi3.so:_ZN4Sass9Functions7abs_sigE
_sass.abi3.so:_ZN4Sass9Functions7hsl_sigE
_sass.abi3.so:_ZN4Sass9Functions7hue_sigE
_sass.abi3.so:_ZN4Sass9Functions7inspectERNS_11EnvironmentINS_10SharedImplINS_8AST_NodeEEEEES6_RNS_7ContextEPKcNS_10SourceSpanERSt6vectorINS_9BacktraceESaISD_EESC_INS2_INS_12SelectorListEEESaISI_EESK_
_sass.abi3.so:_ZN4Sass9Functions7lightenERNS_11EnvironmentINS_10SharedImplINS_8AST_NodeEEEEES6_RNS_7ContextEPKcNS_10SourceSpanERSt6vectorINS_9BacktraceESaISD_EESC_INS2_INS_12SelectorListEEESaISI_EESK_
_sass.abi3.so:_ZN4Sass9Functions7map_getERNS_11EnvironmentINS_10SharedImplINS_8AST_NodeEEEEES6_RNS_7ContextEPKcNS_10SourceSpanERSt6vectorINS_9BacktraceESaISD_EESC_INS2_INS_12SelectorListEEESaISI_EESK_
_sass.abi3.so:_ZN4Sass9Functions7max_sigE
_sass.abi3.so:_ZN4Sass9Functions7min_sigE
_sass.abi3.so:_ZN4Sass9Functions7mix_sigE
_sass.abi3.so:_ZN4Sass9Functions7not_sigE
_sass.abi3.so:_ZN4Sass9Functions7nth_sigE
_sass.abi3.so:_ZN4Sass9Functions7opacifyERNS_11EnvironmentINS_10SharedImplINS_8AST_NodeEEEEES6_RNS_7ContextEPKcNS_10SourceSpanERSt6vectorINS_9BacktraceESaISD_EESC_INS2_INS_12SelectorListEEESaISI_EESK_
_sass.abi3.so:_ZN4Sass9Functions7red_sigE
_sass.abi3.so:_ZN4Sass9Functions7rgb_sigE
_sass.abi3.so:_ZN4Sass9Functions7sass_ifERNS_11EnvironmentINS_10SharedImplINS_8AST_NodeEEEEES6_RNS_7ContextEPKcNS_10SourceSpanERSt6vectorINS_9BacktraceESaISD_EESC_INS2_INS_12SelectorListEEESaISI_EESK_
_sass.abi3.so:_ZN4Sass9Functions7set_nthERNS_11EnvironmentINS_10SharedImplINS_8AST_NodeEEEEES6_RNS_7ContextEPKcNS_10SourceSpanERSt6vectorINS_9BacktraceESaISD_EESC_INS2_INS_12SelectorListEEESaISI_EESK_
_sass.abi3.so:_ZN4Sass9Functions7type_ofERNS_11EnvironmentINS_10SharedImplINS_8AST_NodeEEEEES6_RNS_7ContextEPKcNS_10SourceSpanERSt6vectorINS_9BacktraceESaISD_EESC_INS2_INS_12SelectorListEEESaISI_EESK_
_sass.abi3.so:_ZN4Sass9Functions7zip_sigE
_sass.abi3.so:_ZN4Sass9Functions8blue_sigE
_sass.abi3.so:_ZN4Sass9Functions8call_sigE
_sass.abi3.so:_ZN4Sass9Functions8ceil_sigE
_sass.abi3.so:_ZN4Sass9Functions8colormixERNS_7ContextERNS_10SourceSpanEPNS_5ColorES6_d
_sass.abi3.so:_ZN4Sass9Functions8hsla_sigE
_sass.abi3.so:_ZN4Sass9Functions8join_sigE
_sass.abi3.so:_ZN4Sass9Functions8keywordsERNS_11EnvironmentINS_10SharedImplINS_8AST_NodeEEEEES6_RNS_7ContextEPKcNS_10SourceSpanERSt6vectorINS_9BacktraceESaISD_EESC_INS2_INS_12SelectorListEEESaISI_EESK_
_sass.abi3.so:_ZN4Sass9Functions8map_keysERNS_11EnvironmentINS_10SharedImplINS_8AST_NodeEEEEES6_RNS_7ContextEPKcNS_10SourceSpanERSt6vectorINS_9BacktraceESaISD_EESC_INS2_INS_12SelectorListEEESaISI_EESK_
_sass.abi3.so:_ZN4Sass9Functions8sass_notERNS_11EnvironmentINS_10SharedImplINS_8AST_NodeEEEEES6_RNS_7ContextEPKcNS_10SourceSpanERSt6vectorINS_9BacktraceESaISD_EESC_INS2_INS_12SelectorListEEESaISI_EESK_
_sass.abi3.so:_ZN4Sass9Functions8saturateERNS_11EnvironmentINS_10SharedImplINS_8AST_NodeEEEEES6_RNS_7ContextEPKcNS_10SourceSpanERSt6vectorINS_9BacktraceESaISD_EESC_INS2_INS_12SelectorListEEESaISI_EESK_
_sass.abi3.so:_ZN4Sass9Functions8unit_sigE
_sass.abi3.so:_ZN4Sass9Functions8unitlessERNS_11EnvironmentINS_10SharedImplINS_8AST_NodeEEEEES6_RNS_7ContextEPKcNS_10SourceSpanERSt6vectorINS_9BacktraceESaISD_EESC_INS2_INS_12SelectorListEEESaISI_EESK_
_sass.abi3.so:_ZN4Sass9Functions9alpha_numERKNSt7__cxx1112basic_stringIcSt11char_traitsIcESaIcEEERNS_11EnvironmentINS_10SharedImplINS_8AST_NodeEEEEEPKcNS_10SourceSpanESt6vectorINS_9BacktraceESaISJ_EE
_sass.abi3.so:_ZN4Sass9Functions9alpha_sigE
_sass.abi3.so:_ZN4Sass9Functions9color_numERKNSt7__cxx1112basic_stringIcSt11char_traitsIcESaIcEEERNS_11EnvironmentINS_10SharedImplINS_8AST_NodeEEEEEPKcNS_10SourceSpanESt6vectorINS_9BacktraceESaISJ_EE
_sass.abi3.so:_ZN4Sass9Functions9floor_sigE
_sass.abi3.so:_ZN4Sass9Functions9get_arg_mERKNSt7__cxx1112basic_stringIcSt11char_traitsIcESaIcEEERNS_11EnvironmentINS_10SharedImplINS_8AST_NodeEEEEEPKcNS_10SourceSpanESt6vectorINS_9BacktraceESaISJ_EE
_sass.abi3.so:_ZN4Sass9Functions9get_arg_nERKNSt7__cxx1112basic_stringIcSt11char_traitsIcESaIcEEERNS_11EnvironmentINS_10SharedImplINS_8AST_NodeEEEEEPKcNS_10SourceSpanESt6vectorINS_9BacktraceESaISJ_EE
_sass.abi3.so:_ZN4Sass9Functions9get_arg_rERKNSt7__cxx1112basic_stringIcSt11char_traitsIcESaIcEEERNS_11EnvironmentINS_10SharedImplINS_8AST_NodeEEEEEPKcNS_10SourceSpanESt6vectorINS_9BacktraceESaISJ_EEdd
_sass.abi3.so:_ZN4Sass9Functions9grayscaleERNS_11EnvironmentINS_10SharedImplINS_8AST_NodeEEEEES6_RNS_7ContextEPKcNS_10SourceSpanERSt6vectorINS_9BacktraceESaISD_EESC_INS2_INS_12SelectorListEEESaISI_EESK_
_sass.abi3.so:_ZN4Sass9Functions9green_sigE
_sass.abi3.so:_ZN4Sass9Functions9index_sigE
_sass.abi3.so:_ZN4Sass9Functions9lightnessERNS_11EnvironmentINS_10SharedImplINS_8AST_NodeEEEEES6_RNS_7ContextEPKcNS_10SourceSpanERSt6vectorINS_9BacktraceESaISD_EESC_INS2_INS_12SelectorListEEESaISI_EESK_
_sass.abi3.so:_ZN4Sass9Functions9map_mergeERNS_11EnvironmentINS_10SharedImplINS_8AST_NodeEEEEES6_RNS_7ContextEPKcNS_10SourceSpanERSt6vectorINS_9BacktraceESaISD_EESC_INS2_INS_12SelectorListEEESaISI_EESK_
_sass.abi3.so:_ZN4Sass9Functions9quote_sigE
_sass.abi3.so:_ZN4Sass9Functions9round_sigE
_sass.abi3.so:_ZN4Sass9Functions9str_indexERNS_11EnvironmentINS_10SharedImplINS_8AST_NodeEEEEES6_RNS_7ContextEPKcNS_10SourceSpanERSt6vectorINS_9BacktraceESaISD_EESC_INS2_INS_12SelectorListEEESaISI_EESK_
_sass.abi3.so:_ZN4Sass9Functions9str_sliceERNS_11EnvironmentINS_10SharedImplINS_8AST_NodeEEEEES6_RNS_7ContextEPKcNS_10SourceSpanERSt6vectorINS_9BacktraceESaISD_EESC_INS2_INS_12SelectorListEEESaISI_EESK_
_sass.abi3.so:_ZN4Sass9Functions9unique_idERNS_11EnvironmentINS_10SharedImplINS_8AST_NodeEEEEES6_RNS_7ContextEPKcNS_10SourceSpanERSt6vectorINS_9BacktraceESaISD_EESC_INS2_INS_12SelectorListEEESaISI_EESK_
_sass.abi3.so:_ZN4Sass9MediaRuleC1ENS_10SourceSpanENS_10SharedImplINS_5BlockEEE
_sass.abi3.so:_ZN4Sass9MediaRuleC1EPKS0_
_sass.abi3.so:_ZN4Sass9MediaRuleC2ENS_10SourceSpanENS_10SharedImplINS_5BlockEEE
_sass.abi3.so:_ZN4Sass9MediaRuleC2EPKS0_
_sass.abi3.so:_ZN4Sass9Operators10op_numbersE7Sass_OPRKNS_6NumberES4_20Sass_Inspect_OptionsRKNS_10SourceSpanEb
_sass.abi3.so:_ZN4Sass9Operators10op_stringsENS_7OperandERNS_5ValueES3_20Sass_Inspect_OptionsRKNS_10SourceSpanEb
_sass.abi3.so:_ZN4Sass9Operators15op_color_numberE7Sass_OPRKNS_10Color_RGBAERKNS_6NumberE20Sass_Inspect_OptionsRKNS_10SourceSpanEb
_sass.abi3.so:_ZN4Sass9Operators15op_number_colorE7Sass_OPRKNS_6NumberERKNS_10Color_RGBAE20Sass_Inspect_OptionsRKNS_10SourceSpanEb
_sass.abi3.so:_ZN4Sass9Operators20op_color_deprecationE7Sass_OPNSt7__cxx1112basic_stringIcSt11char_traitsIcESaIcEEES7_RKNS_10SourceSpanE
_sass.abi3.so:_ZN4Sass9Operators2eqENS_10SharedImplINS_10ExpressionEEES3_
_sass.abi3.so:_ZN4Sass9Operators2gtENS_10SharedImplINS_10ExpressionEEES3_
_sass.abi3.so:_ZN4Sass9Operators2ltENS_10SharedImplINS_10ExpressionEEES3_
_sass.abi3.so:_ZN4Sass9Operators3cmpENS_10SharedImplINS_10ExpressionEEES3_7Sass_OP
_sass.abi3.so:_ZN4Sass9Operators3gteENS_10SharedImplINS_10ExpressionEEES3_
_sass.abi3.so:_ZN4Sass9Operators3lteENS_10SharedImplINS_10ExpressionEEES3_
_sass.abi3.so:_ZN4Sass9Operators3neqENS_10SharedImplINS_10ExpressionEEES3_
_sass.abi3.so:_ZN4Sass9Operators3opsE
_sass.abi3.so:_ZN4Sass9Operators9op_colorsE7Sass_OPRKNS_10Color_RGBAES4_20Sass_Inspect_OptionsRKNS_10SourceSpanEb
_sass.abi3.so:_ZN4Sass9ParameterC1ENS_10SourceSpanENSt7__cxx1112basic_stringIcSt11char_traitsIcESaIcEEENS_10SharedImplINS_10ExpressionEEEb
_sass.abi3.so:_ZN4Sass9ParameterC1EPKS0_
_sass.abi3.so:_ZN4Sass9ParameterC2ENS_10SourceSpanENSt7__cxx1112basic_stringIcSt11char_traitsIcESaIcEEENS_10SharedImplINS_10ExpressionEEEb
_sass.abi3.so:_ZN4Sass9ParameterC2EPKS0_
_sass.abi3.so:_ZN4Sass9SharedObj5taintE
_sass.abi3.so:_ZN4Sass9SourceMap13render_srcmapB5cxx11ERNS_7ContextE
_sass.abi3.so:_ZN4Sass9SourceMap16add_open_mappingEPKNS_8AST_NodeE
_sass.abi3.so:_ZN4Sass9SourceMap17add_close_mappingEPKNS_8AST_NodeE
_sass.abi3.so:_ZN4Sass9SourceMap18serialize_mappingsB5cxx11Ev
_sass.abi3.so:_ZN4Sass9SourceMap5remapERKNS_10SourceSpanE
_sass.abi3.so:_ZN4Sass9SourceMap6appendERKNS_12OutputBufferE
_sass.abi3.so:_ZN4Sass9SourceMap6appendERKNS_6OffsetE
_sass.abi3.so:_ZN4Sass9SourceMap7prependERKNS_12OutputBufferE
_sass.abi3.so:_ZN4Sass9SourceMap7prependERKNS_6OffsetE
_sass.abi3.so:_ZN4Sass9SourceMapC1ERKNSt7__cxx1112basic_stringIcSt11char_traitsIcESaIcEEE
_sass.abi3.so:_ZN4Sass9SourceMapC1Ev
_sass.abi3.so:_ZN4Sass9SourceMapC2ERKNSt7__cxx1112basic_stringIcSt11char_traitsIcESaIcEEE
_sass.abi3.so:_ZN4Sass9SourceMapC2Ev
_sass.abi3.so:_ZN4Sass9Statement11has_contentEv
_sass.abi3.so:_ZN4Sass9Statement7bubblesEv
_sass.abi3.so:_ZN4Sass9StatementC1ENS_10SourceSpanENS0_4TypeEm
_sass.abi3.so:_ZN4Sass9StatementC1EPKS0_
_sass.abi3.so:_ZN4Sass9StatementC2ENS_10SourceSpanENS0_4TypeEm
_sass.abi3.so:_ZN4Sass9StatementC2EPKS0_
_sass.abi3.so:_ZN4Sass9StyleRuleC1ENS_10SourceSpanENS_10SharedImplINS_12SelectorListEEENS2_INS_5BlockEEE
_sass.abi3.so:_ZN4Sass9StyleRuleC1EPKS0_
_sass.abi3.so:_ZN4Sass9StyleRuleC2ENS_10SourceSpanENS_10SharedImplINS_12SelectorListEEENS2_INS_5BlockEEE
_sass.abi3.so:_ZN4Sass9StyleRuleC2EPKS0_
_sass.abi3.so:_ZN4Sass9WhileRuleC1ENS_10SourceSpanENS_10SharedImplINS_10ExpressionEEENS2_INS_5BlockEEE
_sass.abi3.so:_ZN4Sass9WhileRuleC1EPKS0_
_sass.abi3.so:_ZN4Sass9WhileRuleC2ENS_10SourceSpanENS_10SharedImplINS_10ExpressionEEENS2_INS_5BlockEEE
_sass.abi3.so:_ZN4Sass9WhileRuleC2EPKS0_
_sass.abi3.so:_ZN4Sass9cmpGroupsERKSt6vectorINS_10SharedImplINS_17SelectorComponentEEESaIS3_EES7_RS5_
_sass.abi3.so:_ZN4Sass9coreErrorENSt7__cxx1112basic_stringIcSt11char_traitsIcESaIcEEENS_10SourceSpanE
_sass.abi3.so:_ZN4Sass9mustUnifyERKSt6vectorINS_10SharedImplINS_17SelectorComponentEEESaIS3_EES7_
_sass.abi3.so:_ZN4Sass9sass2scssERKNSt7__cxx1112basic_stringIcSt11char_traitsIcESaIcEEEi
_sass.abi3.so:_ZN4Sass9str_rtrimERNSt7__cxx1112basic_stringIcSt11char_traitsIcESaIcEEERKS5_
_sass.abi3.so:_ZNK4Sass10Assignment4copyEv
_sass.abi3.so:_ZNK4Sass10Assignment5cloneEv
_sass.abi3.so:_ZNK4Sass10AtRootRule4copyEv
_sass.abi3.so:_ZNK4Sass10AtRootRule5cloneEv
_sass.abi3.so:_ZNK4Sass10Color_HSLA10copyAsHSLAEv
_sass.abi3.so:_ZNK4Sass10Color_HSLA10copyAsRGBAEv
_sass.abi3.so:_ZNK4Sass10Color_HSLA4copyEv
_sass.abi3.so:_ZNK4Sass10Color_HSLA4hashEv
_sass.abi3.so:_ZNK4Sass10Color_HSLA5cloneEv
_sass.abi3.so:_ZNK4Sass10Color_HSLAeqERKNS_10ExpressionE
_sass.abi3.so:_ZNK4Sass10Color_HSLAltERKNS_10ExpressionE
_sass.abi3.so:_ZNK4Sass10Color_RGBA10copyAsHSLAEv
_sass.abi3.so:_ZNK4Sass10Color_RGBA10copyAsRGBAEv
_sass.abi3.so:_ZNK4Sass10Color_RGBA4copyEv
_sass.abi3.so:_ZNK4Sass10Color_RGBA4hashEv
_sass.abi3.so:_ZNK4Sass10Color_RGBA5cloneEv
_sass.abi3.so:_ZNK4Sass10Color_RGBAeqERKNS_10ExpressionE
_sass.abi3.so:_ZNK4Sass10Color_RGBAltERKNS_10ExpressionE
_sass.abi3.so:_ZNK4Sass10Definition4copyEv
_sass.abi3.so:_ZNK4Sass10Definition5cloneEv
_sass.abi3.so:_ZNK4Sass10ExtendRule4copyEv
_sass.abi3.so:_ZNK4Sass10ExtendRule5cloneEv
_sass.abi3.so:_ZNK4Sass10IDSelector11specificityEv
_sass.abi3.so:_ZNK4Sass10IDSelector4copyEv
_sass.abi3.so:_ZNK4Sass10IDSelector5cloneEv
_sass.abi3.so:_ZNK4Sass10IDSelectoreqERKNS_14SimpleSelectorE
_sass.abi3.so:_ZNK4Sass10IDSelectoreqERKS0_
_sass.abi3.so:_ZNK4Sass10Mixin_Call4copyEv
_sass.abi3.so:_ZNK4Sass10Mixin_Call5cloneEv
_sass.abi3.so:_ZNK4Sass10Parameters4copyEv
_sass.abi3.so:_ZNK4Sass10Parameters5cloneEv
_sass.abi3.so:_ZNK4Sass10SourceFile10getRawDataEv
_sass.abi3.so:_ZNK4Sass10SourceFile3endEv
_sass.abi3.so:_ZNK4Sass10SourceFile5beginEv
_sass.abi3.so:_ZNK4Sass11Declaration12is_invisibleEv
_sass.abi3.so:_ZNK4Sass11Declaration4copyEv
_sass.abi3.so:_ZNK4Sass11Declaration5cloneEv
_sass.abi3.so:_ZNK4Sass11Import_Stub4copyEv
_sass.abi3.so:_ZNK4Sass11Import_Stub5cloneEv
_sass.abi3.so:_ZNK4Sass11Media_Query4copyEv
_sass.abi3.so:_ZNK4Sass11Media_Query5cloneEv
_sass.abi3.so:_ZNK4Sass11WarningRule4copyEv
_sass.abi3.so:_ZNK4Sass11WarningRule5cloneEv
_sass.abi3.so:_ZNK4Sass12CssMediaRule4copyEv
_sass.abi3.so:_ZNK4Sass12CssMediaRule5cloneEv
_sass.abi3.so:_ZNK4Sass12Custom_Error4copyEv
_sass.abi3.so:_ZNK4Sass12Custom_Error5cloneEv
_sass.abi3.so:_ZNK4Sass12Custom_ErroreqERKNS_10ExpressionE
_sass.abi3.so:_ZNK4Sass12Custom_ErrorltERKNS_10ExpressionE
_sass.abi3.so:_ZNK4Sass12SelectorList11isInvisibleEv
_sass.abi3.so:_ZNK4Sass12SelectorList11specificityEv
_sass.abi3.so:_ZNK4Sass12SelectorList14maxSpecificityEv
_sass.abi3.so:_ZNK4Sass12SelectorList14minSpecificityEv
_sass.abi3.so:_ZNK4Sass12SelectorList17isSuperselectorOfEPKS0_
_sass.abi3.so:_ZNK4Sass12SelectorList19has_real_parent_refEv
_sass.abi3.so:_ZNK4Sass12SelectorList4copyEv
_sass.abi3.so:_ZNK4Sass12SelectorList4hashEv
_sass.abi3.so:_ZNK4Sass12SelectorList5cloneEv
_sass.abi3.so:_ZNK4Sass12SelectorListeqERKNS_10ExpressionE
_sass.abi3.so:_ZNK4Sass12SelectorListeqERKNS_14SimpleSelectorE
_sass.abi3.so:_ZNK4Sass12SelectorListeqERKNS_15ComplexSelectorE
_sass.abi3.so:_ZNK4Sass12SelectorListeqERKNS_16CompoundSelectorE
_sass.abi3.so:_ZNK4Sass12SelectorListeqERKNS_8SelectorE
_sass.abi3.so:_ZNK4Sass12SelectorListeqERKS0_
_sass.abi3.so:_ZNK4Sass12SupportsRule4copyEv
_sass.abi3.so:_ZNK4Sass12SupportsRule5cloneEv
_sass.abi3.so:_ZNK4Sass12TypeSelector11specificityEv
_sass.abi3.so:_ZNK4Sass12TypeSelector4copyEv
_sass.abi3.so:_ZNK4Sass12TypeSelector5cloneEv
_sass.abi3.so:_ZNK4Sass12TypeSelectoreqERKNS_14SimpleSelectorE
_sass.abi3.so:_ZNK4Sass12TypeSelectoreqERKS0_
_sass.abi3.so:_ZNK4Sass13At_Root_Query4copyEv
_sass.abi3.so:_ZNK4Sass13At_Root_Query5cloneEv
_sass.abi3.so:_ZNK4Sass13ClassSelector11specificityEv
_sass.abi3.so:_ZNK4Sass13ClassSelector4copyEv
_sass.abi3.so:_ZNK4Sass13ClassSelector5cloneEv
_sass.abi3.so:_ZNK4Sass13ClassSelectoreqERKNS_14SimpleSelectorE
_sass.abi3.so:_ZNK4Sass13ClassSelectoreqERKS0_
_sass.abi3.so:_ZNK4Sass13CssMediaQuery4copyEv
_sass.abi3.so:_ZNK4Sass13CssMediaQuery5cloneEv
_sass.abi3.so:_ZNK4Sass13CssMediaQueryeqERKS0_
_sass.abi3.so:_ZNK4Sass13Function_Call4copyEv
_sass.abi3.so:_ZNK4Sass13Function_Call4hashEv
_sass.abi3.so:_ZNK4Sass13Function_Call4nameB5cxx11Ev
_sass.abi3.so:_ZNK4Sass13Function_Call5cloneEv
_sass.abi3.so:_ZNK4Sass13Function_CalleqERKNS_10ExpressionE
_sass.abi3.so:_ZNK4Sass13Keyframe_Rule4copyEv
_sass.abi3.so:_ZNK4Sass13Keyframe_Rule5cloneEv
_sass.abi3.so:_ZNK4Sass13String_Quoted4copyEv
_sass.abi3.so:_ZNK4Sass13String_Quoted5cloneEv
_sass.abi3.so:_ZNK4Sass13String_Quoted7inspectB5cxx11Ev
_sass.abi3.so:_ZNK4Sass13String_QuotedeqERKNS_10ExpressionE
_sass.abi3.so:_ZNK4Sass13String_QuotedltERKNS_10ExpressionE
_sass.abi3.so:_ZNK4Sass13String_Schema19is_left_interpolantEv
_sass.abi3.so:_ZNK4Sass13String_Schema20is_right_interpolantEv
_sass.abi3.so:_ZNK4Sass13String_Schema4copyEv
_sass.abi3.so:_ZNK4Sass13String_Schema4hashEv
_sass.abi3.so:_ZNK4Sass13String_Schema5cloneEv
_sass.abi3.so:_ZNK4Sass13String_SchemaeqERKNS_10ExpressionE
_sass.abi3.so:_ZNK4Sass13String_SchemaltERKNS_10ExpressionE
_sass.abi3.so:_ZNK4Sass14Custom_Warning4copyEv
_sass.abi3.so:_ZNK4Sass14Custom_Warning5cloneEv
_sass.abi3.so:_ZNK4Sass14Custom_WarningeqERKNS_10ExpressionE
_sass.abi3.so:_ZNK4Sass14Custom_WarningltERKNS_10ExpressionE
_sass.abi3.so:_ZNK4Sass14PseudoSelector11specificityEv
_sass.abi3.so:_ZNK4Sass14PseudoSelector17is_pseudo_elementEv
_sass.abi3.so:_ZNK4Sass14PseudoSelector19has_real_parent_refEv
_sass.abi3.so:_ZNK4Sass14PseudoSelector4copyEv
_sass.abi3.so:_ZNK4Sass14PseudoSelector4hashEv
_sass.abi3.so:_ZNK4Sass14PseudoSelector5cloneEv
_sass.abi3.so:_ZNK4Sass14PseudoSelector5emptyEv
_sass.abi3.so:_ZNK4Sass14PseudoSelectoreqERKNS_14SimpleSelectorE
_sass.abi3.so:_ZNK4Sass14PseudoSelectoreqERKS0_
_sass.abi3.so:_ZNK4Sass14SimpleSelector11is_empty_nsEv
_sass.abi3.so:_ZNK4Sass14SimpleSelector12has_empty_nsEv
_sass.abi3.so:_ZNK4Sass14SimpleSelector12is_universalEv
_sass.abi3.so:_ZNK4Sass14SimpleSelector15is_universal_nsEv
_sass.abi3.so:_ZNK4Sass14SimpleSelector16has_qualified_nsEv
_sass.abi3.so:_ZNK4Sass14SimpleSelector17is_pseudo_elementEv
_sass.abi3.so:_ZNK4Sass14SimpleSelector19has_real_parent_refEv
_sass.abi3.so:_ZNK4Sass14SimpleSelector4hashEv
_sass.abi3.so:_ZNK4Sass14SimpleSelector5emptyEv
_sass.abi3.so:_ZNK4Sass14SimpleSelector7ns_nameB5cxx11Ev
_sass.abi3.so:_ZNK4Sass14SimpleSelector8is_ns_eqERKS0_
_sass.abi3.so:_ZNK4Sass14SimpleSelectoreqERKNS_12SelectorListE
_sass.abi3.so:_ZNK4Sass14SimpleSelectoreqERKNS_15ComplexSelectorE
_sass.abi3.so:_ZNK4Sass14SimpleSelectoreqERKNS_16CompoundSelectorE
_sass.abi3.so:_ZNK4Sass14SimpleSelectoreqERKNS_8SelectorE
_sass.abi3.so:_ZNK4Sass15ComplexSelector11isInvisibleEv
_sass.abi3.so:_ZNK4Sass15ComplexSelector11specificityEv
_sass.abi3.so:_ZNK4Sass15ComplexSelector12isInvalidCssEv
_sass.abi3.so:_ZNK4Sass15ComplexSelector14maxSpecificityEv
_sass.abi3.so:_ZNK4Sass15ComplexSelector14minSpecificityEv
_sass.abi3.so:_ZNK4Sass15ComplexSelector15has_placeholderEv
_sass.abi3.so:_ZNK4Sass15ComplexSelector17isSuperselectorOfEPKS0_
_sass.abi3.so:_ZNK4Sass15ComplexSelector19has_real_parent_refEv
_sass.abi3.so:_ZNK4Sass15ComplexSelector4copyEv
_sass.abi3.so:_ZNK4Sass15ComplexSelector4hashEv
_sass.abi3.so:_ZNK4Sass15ComplexSelector5cloneEv
_sass.abi3.so:_ZNK4Sass15ComplexSelectoreqERKNS_12SelectorListE
_sass.abi3.so:_ZNK4Sass15ComplexSelectoreqERKNS_14SimpleSelectorE
_sass.abi3.so:_ZNK4Sass15ComplexSelectoreqERKNS_16CompoundSelectorE
_sass.abi3.so:_ZNK4Sass15ComplexSelectoreqERKNS_8SelectorE
_sass.abi3.so:_ZNK4Sass15ComplexSelectoreqERKS0_
_sass.abi3.so:_ZNK4Sass15Selector_Schema11specificityEv
_sass.abi3.so:_ZNK4Sass15Selector_Schema19has_real_parent_refEv
_sass.abi3.so:_ZNK4Sass15Selector_Schema4copyEv
_sass.abi3.so:_ZNK4Sass15Selector_Schema4hashEv
_sass.abi3.so:_ZNK4Sass15Selector_Schema5cloneEv
_sass.abi3.so:_ZNK4Sass15String_Constant12is_invisibleEv
_sass.abi3.so:_ZNK4Sass15String_Constant4copyEv
_sass.abi3.so:_ZNK4Sass15String_Constant4hashEv
_sass.abi3.so:_ZNK4Sass15String_Constant5cloneEv
_sass.abi3.so:_ZNK4Sass15String_Constant7inspectB5cxx11Ev
_sass.abi3.so:_ZNK4Sass15String_ConstanteqERKNS_10ExpressionE
_sass.abi3.so:_ZNK4Sass15String_ConstantltERKNS_10ExpressionE
_sass.abi3.so:_ZNK4Sass16CompoundSelector11isInvisibleEv
_sass.abi3.so:_ZNK4Sass16CompoundSelector11specificityEv
_sass.abi3.so:_ZNK4Sass16CompoundSelector12isInvalidCssEv
_sass.abi3.so:_ZNK4Sass16CompoundSelector14maxSpecificityEv
_sass.abi3.so:_ZNK4Sass16CompoundSelector14minSpecificityEv
_sass.abi3.so:_ZNK4Sass16CompoundSelector15has_placeholderEv
_sass.abi3.so:_ZNK4Sass16CompoundSelector17isSuperselectorOfEPKS0_NSt7__cxx1112basic_stringIcSt11char_traitsIcESaIcEEE
_sass.abi3.so:_ZNK4Sass16CompoundSelector19has_real_parent_refEv
_sass.abi3.so:_ZNK4Sass16CompoundSelector4copyEv
_sass.abi3.so:_ZNK4Sass16CompoundSelector4hashEv
_sass.abi3.so:_ZNK4Sass16CompoundSelector5cloneEv
_sass.abi3.so:_ZNK4Sass16CompoundSelectoreqERKNS_12SelectorListE
_sass.abi3.so:_ZNK4Sass16CompoundSelectoreqERKNS_14SimpleSelectorE
_sass.abi3.so:_ZNK4Sass16CompoundSelectoreqERKNS_15ComplexSelectorE
_sass.abi3.so:_ZNK4Sass16CompoundSelectoreqERKNS_17SelectorComponentE
_sass.abi3.so:_ZNK4Sass16CompoundSelectoreqERKNS_8SelectorE
_sass.abi3.so:_ZNK4Sass16CompoundSelectoreqERKS0_
_sass.abi3.so:_ZNK4Sass16Parent_Reference4copyEv
_sass.abi3.so:_ZNK4Sass16Parent_Reference5cloneEv
_sass.abi3.so:_ZNK4Sass16SupportsNegation12needs_parensENS_10SharedImplINS_17SupportsConditionEEE
_sass.abi3.so:_ZNK4Sass16SupportsNegation4copyEv
_sass.abi3.so:_ZNK4Sass16SupportsNegation5cloneEv
_sass.abi3.so:_ZNK4Sass16Unary_Expression4copyEv
_sass.abi3.so:_ZNK4Sass16Unary_Expression4hashEv
_sass.abi3.so:_ZNK4Sass16Unary_Expression5cloneEv
_sass.abi3.so:_ZNK4Sass16Unary_ExpressioneqERKNS_10ExpressionE
_sass.abi3.so:_ZNK4Sass17AttributeSelector11specificityEv
_sass.abi3.so:_ZNK4Sass17AttributeSelector4copyEv
_sass.abi3.so:_ZNK4Sass17AttributeSelector4hashEv
_sass.abi3.so:_ZNK4Sass17AttributeSelector5cloneEv
_sass.abi3.so:_ZNK4Sass17AttributeSelectoreqERKNS_14SimpleSelectorE
_sass.abi3.so:_ZNK4Sass17AttributeSelectoreqERKS0_
_sass.abi3.so:_ZNK4Sass17Binary_Expression15has_interpolantEv
_sass.abi3.so:_ZNK4Sass17Binary_Expression19is_left_interpolantEv
_sass.abi3.so:_ZNK4Sass17Binary_Expression20is_right_interpolantEv
_sass.abi3.so:_ZNK4Sass17Binary_Expression4copyEv
_sass.abi3.so:_ZNK4Sass17Binary_Expression4hashEv
_sass.abi3.so:_ZNK4Sass17Binary_Expression5cloneEv
_sass.abi3.so:_ZNK4Sass17Binary_ExpressioneqERKNS_10ExpressionE
_sass.abi3.so:_ZNK4Sass17Binary_ExpressionltERKNS_10ExpressionE
_sass.abi3.so:_ZNK4Sass17SelectorComponent11specificityEv
_sass.abi3.so:_ZNK4Sass17SupportsCondition4copyEv
_sass.abi3.so:_ZNK4Sass17SupportsCondition5cloneEv
_sass.abi3.so:_ZNK4Sass17SupportsOperation12needs_parensENS_10SharedImplINS_17SupportsConditionEEE
_sass.abi3.so:_ZNK4Sass17SupportsOperation4copyEv
_sass.abi3.so:_ZNK4Sass17SupportsOperation5cloneEv
_sass.abi3.so:_ZNK4Sass18SelectorCombinator11specificityEv
_sass.abi3.so:_ZNK4Sass18SelectorCombinator4copyEv
_sass.abi3.so:_ZNK4Sass18SelectorCombinator5cloneEv
_sass.abi3.so:_ZNK4Sass18SelectorCombinatoreqERKNS_17SelectorComponentE
_sass.abi3.so:_ZNK4Sass18SelectorCombinatoreqERKNS_8SelectorE
_sass.abi3.so:_ZNK4Sass18SelectorCombinatoreqERKS0_
_sass.abi3.so:_ZNK4Sass19PlaceholderSelector11specificityEv
_sass.abi3.so:_ZNK4Sass19PlaceholderSelector4copyEv
_sass.abi3.so:_ZNK4Sass19PlaceholderSelector5cloneEv
_sass.abi3.so:_ZNK4Sass19PlaceholderSelectoreqERKNS_14SimpleSelectorE
_sass.abi3.so:_ZNK4Sass19PlaceholderSelectoreqERKS0_
_sass.abi3.so:_ZNK4Sass19SupportsDeclaration12needs_parensENS_10SharedImplINS_17SupportsConditionEEE
_sass.abi3.so:_ZNK4Sass19SupportsDeclaration4copyEv
_sass.abi3.so:_ZNK4Sass19SupportsDeclaration5cloneEv
_sass.abi3.so:_ZNK4Sass22Media_Query_Expression4copyEv
_sass.abi3.so:_ZNK4Sass22Media_Query_Expression5cloneEv
_sass.abi3.so:_ZNK4Sass22Supports_Interpolation12needs_parensENS_10SharedImplINS_17SupportsConditionEEE
_sass.abi3.so:_ZNK4Sass22Supports_Interpolation4copyEv
_sass.abi3.so:_ZNK4Sass22Supports_Interpolation5cloneEv
_sass.abi3.so:_ZNK4Sass2If4copyEv
_sass.abi3.so:_ZNK4Sass2If5cloneEv
_sass.abi3.so:_ZNK4Sass3Map4copyEv
_sass.abi3.so:_ZNK4Sass3Map4hashEv
_sass.abi3.so:_ZNK4Sass3Map5cloneEv
_sass.abi3.so:_ZNK4Sass3MapeqERKNS_10ExpressionE
_sass.abi3.so:_ZNK4Sass3MapltERKNS_10ExpressionE
_sass.abi3.so:_ZNK4Sass4List4copyEv
_sass.abi3.so:_ZNK4Sass4List4hashEv
_sass.abi3.so:_ZNK4Sass4List4sizeEv
_sass.abi3.so:_ZNK4Sass4List5cloneEv
_sass.abi3.so:_ZNK4Sass4ListeqERKNS_10ExpressionE
_sass.abi3.so:_ZNK4Sass4ListltERKNS_10ExpressionE
_sass.abi3.so:_ZNK4Sass4Null4copyEv
_sass.abi3.so:_ZNK4Sass4Null4hashEv
_sass.abi3.so:_ZNK4Sass4Null5cloneEv
_sass.abi3.so:_ZNK4Sass4NulleqERKNS_10ExpressionE
_sass.abi3.so:_ZNK4Sass4NullltERKNS_10ExpressionE
_sass.abi3.so:_ZNK4Sass5Block11isInvisibleEv
_sass.abi3.so:_ZNK4Sass5Block4copyEv
_sass.abi3.so:_ZNK4Sass5Block5cloneEv
_sass.abi3.so:_ZNK4Sass5ColoreqERKNS_10ExpressionE
_sass.abi3.so:_ZNK4Sass5ColorltERKNS_10ExpressionE
_sass.abi3.so:_ZNK4Sass5Trace4copyEv
_sass.abi3.so:_ZNK4Sass5Trace5cloneEv
_sass.abi3.so:_ZNK4Sass5Units11is_unitlessEv
_sass.abi3.so:_ZNK4Sass5Units14convert_factorERKS0_
_sass.abi3.so:_ZNK4Sass5Units17is_valid_css_unitEv
_sass.abi3.so:_ZNK4Sass5Units4unitB5cxx11Ev
_sass.abi3.so:_ZNK4Sass5UnitseqERKS0_
_sass.abi3.so:_ZNK4Sass5UnitsltERKS0_
_sass.abi3.so:_ZNK4Sass5UnitsneERKS0_
_sass.abi3.so:_ZNK4Sass6AtRule4copyEv
_sass.abi3.so:_ZNK4Sass6AtRule5cloneEv
_sass.abi3.so:_ZNK4Sass6Bubble4copyEv
_sass.abi3.so:_ZNK4Sass6Bubble5cloneEv
_sass.abi3.so:_ZNK4Sass6Import4copyEv
_sass.abi3.so:_ZNK4Sass6Import5cloneEv
_sass.abi3.so:_ZNK4Sass6Number4copyEv
_sass.abi3.so:_ZNK4Sass6Number4hashEv
_sass.abi3.so:_ZNK4Sass6Number5cloneEv
_sass.abi3.so:_ZNK4Sass6NumbereqERKNS_10ExpressionE
_sass.abi3.so:_ZNK4Sass6NumbereqERKS0_
_sass.abi3.so:_ZNK4Sass6NumberltERKNS_10ExpressionE
_sass.abi3.so:_ZNK4Sass6NumberltERKS0_
_sass.abi3.so:_ZNK4Sass6Offset3incEPKcS2_
_sass.abi3.so:_ZNK4Sass6OffseteqERKS0_
_sass.abi3.so:_ZNK4Sass6OffsetmiERKS0_
_sass.abi3.so:_ZNK4Sass6OffsetneERKS0_
_sass.abi3.so:_ZNK4Sass6OffsetplERKS0_
_sass.abi3.so:_ZNK4Sass6Parser15color_or_stringERKNSt7__cxx1112basic_stringIcSt11char_traitsIcESaIcEEE
_sass.abi3.so:_ZNK4Sass6Return4copyEv
_sass.abi3.so:_ZNK4Sass6Return5cloneEv
_sass.abi3.so:_ZNK4Sass7Boolean4copyEv
_sass.abi3.so:_ZNK4Sass7Boolean4hashEv
_sass.abi3.so:_ZNK4Sass7Boolean5cloneEv
_sass.abi3.so:_ZNK4Sass7BooleaneqERKNS_10ExpressionE
_sass.abi3.so:_ZNK4Sass7BooleanltERKNS_10ExpressionE
_sass.abi3.so:_ZNK4Sass7Comment12is_invisibleEv
_sass.abi3.so:_ZNK4Sass7Comment4copyEv
_sass.abi3.so:_ZNK4Sass7Comment5cloneEv
_sass.abi3.so:_ZNK4Sass7Content4copyEv
_sass.abi3.so:_ZNK4Sass7Content5cloneEv
_sass.abi3.so:_ZNK4Sass7Emitter12output_styleEv
_sass.abi3.so:_ZNK4Sass7ForRule4copyEv
_sass.abi3.so:_ZNK4Sass7ForRule5cloneEv
_sass.abi3.so:_ZNK4Sass8AST_Node6to_cssB5cxx11E20Sass_Inspect_Options
_sass.abi3.so:_ZNK4Sass8AST_Node9to_stringB5cxx11E20Sass_Inspect_Options
_sass.abi3.so:_ZNK4Sass8AST_Node9to_stringB5cxx11Ev
_sass.abi3.so:_ZNK4Sass8Argument4copyEv
_sass.abi3.so:_ZNK4Sass8Argument4hashEv
_sass.abi3.so:_ZNK4Sass8Argument5cloneEv
_sass.abi3.so:_ZNK4Sass8ArgumenteqERKNS_10ExpressionE
_sass.abi3.so:_ZNK4Sass8EachRule4copyEv
_sass.abi3.so:_ZNK4Sass8EachRule5cloneEv
_sass.abi3.so:_ZNK4Sass8Extender18extensionForSimpleERKNS_10SharedImplINS_14SimpleSelectorEEE
_sass.abi3.so:_ZNK4Sass8Extender18getSimpleSelectorsEv
_sass.abi3.so:_ZNK4Sass8Extender19extendWithoutPseudoERKNS_10SharedImplINS_14SimpleSelectorEEERKSt13unordered_mapIS3_NS_11ordered_mapINS1_INS_15ComplexSelectorEEENS_9ExtensionENS_7ObjHashENS_11ObjEqualityESaISt4pairIKS9_SA_EEEESB_SC_SaISD_IS4_SH_EEEPSt13unordered_setIS3_SB_SC_SaIS3_EE
_sass.abi3.so:_ZNK4Sass8Extender20extensionForCompoundERKSt6vectorINS_10SharedImplINS_14SimpleSelectorEEESaIS4_EE
_sass.abi3.so:_ZNK4Sass8Extender20maxSourceSpecificityERKNS_10SharedImplINS_14SimpleSelectorEEE
_sass.abi3.so:_ZNK4Sass8Extender20maxSourceSpecificityERKNS_10SharedImplINS_16CompoundSelectorEEE
_sass.abi3.so:_ZNK4Sass8Extender26checkForUnsatisfiedExtendsERNS_9ExtensionE
_sass.abi3.so:_ZNK4Sass8Extender4trimERKSt6vectorINS_10SharedImplINS_15ComplexSelectorEEESaIS4_EERKSt13unordered_setIS4_NS_10ObjPtrHashENS_14ObjPtrEqualityES5_E
_sass.abi3.so:_ZNK4Sass8Function4copyEv
_sass.abi3.so:_ZNK4Sass8Function5cloneEv
_sass.abi3.so:_ZNK4Sass8FunctioneqERKNS_10ExpressionE
_sass.abi3.so:_ZNK4Sass8FunctionltERKNS_10ExpressionE
_sass.abi3.so:_ZNK4Sass8ItplFile10getRawDataEv
_sass.abi3.so:_ZNK4Sass8Position3incEPKcS2_
_sass.abi3.so:_ZNK4Sass8PositioneqERKS0_
_sass.abi3.so:_ZNK4Sass8PositionmiERKNS_6OffsetE
_sass.abi3.so:_ZNK4Sass8PositionneERKS0_
_sass.abi3.so:_ZNK4Sass8PositionplERKNS_6OffsetE
_sass.abi3.so:_ZNK4Sass8Selector19has_real_parent_refEv
_sass.abi3.so:_ZNK4Sass8Variable4copyEv
_sass.abi3.so:_ZNK4Sass8Variable4hashEv
_sass.abi3.so:_ZNK4Sass8Variable5cloneEv
_sass.abi3.so:_ZNK4Sass8VariableeqERKNS_10ExpressionE
_sass.abi3.so:_ZNK4Sass9Arguments4copyEv
_sass.abi3.so:_ZNK4Sass9Arguments5cloneEv
_sass.abi3.so:_ZNK4Sass9Base64VLQ13base64_encodeEi
_sass.abi3.so:_ZNK4Sass9Base64VLQ13to_vlq_signedEi
_sass.abi3.so:_ZNK4Sass9Base64VLQ6encodeB5cxx11Ei
_sass.abi3.so:_ZNK4Sass9DebugRule4copyEv
_sass.abi3.so:_ZNK4Sass9DebugRule5cloneEv
_sass.abi3.so:_ZNK4Sass9ErrorRule4copyEv
_sass.abi3.so:_ZNK4Sass9ErrorRule5cloneEv
_sass.abi3.so:_ZNK4Sass9Extension12withExtenderERKNS_10SharedImplINS_15ComplexSelectorEEE
_sass.abi3.so:_ZNK4Sass9Extension28assertCompatibleMediaContextENS_10SharedImplINS_12CssMediaRuleEEERSt6vectorINS_9BacktraceESaIS5_EE
_sass.abi3.so:_ZNK4Sass9MediaRule4copyEv
_sass.abi3.so:_ZNK4Sass9MediaRule5cloneEv
_sass.abi3.so:_ZNK4Sass9Parameter4copyEv
_sass.abi3.so:_ZNK4Sass9Parameter5cloneEv
_sass.abi3.so:_ZNK4Sass9Statement12is_invisibleEv
_sass.abi3.so:_ZNK4Sass9StyleRule12is_invisibleEv
_sass.abi3.so:_ZNK4Sass9StyleRule4copyEv
_sass.abi3.so:_ZNK4Sass9StyleRule5cloneEv
_sass.abi3.so:_ZNK4Sass9WhileRule4copyEv
_sass.abi3.so:_ZNK4Sass9WhileRule5cloneEv
_sass.abi3.so:_ZThn64_N4Sass10Parameters20adjust_after_pushingENS_10SharedImplINS_9ParameterEEE
_sass.abi3.so:_ZThn72_N4Sass9Arguments20adjust_after_pushingENS_10SharedImplINS_8ArgumentEEE
_sass.abi3.so:_ZThn72_NK4Sass13String_Schema4hashEv
_sass.abi3.so:_ZThn72_NK4Sass4List4hashEv
_sass.abi3.so:_ZThn80_NK4Sass12SelectorList4hashEv
_sass.abi3.so:_ZThn80_NK4Sass15ComplexSelector4hashEv
_sass.abi3.so:_ZThn88_NK4Sass16CompoundSelector4hashEv
_sass.abi3.so:_ZThn8_N4Sass6OutputD0Ev
_sass.abi3.so:_ZThn8_N4Sass6OutputD1Ev
_sass.abi3.so:_ZThn8_N4Sass7InspectD0Ev
_sass.abi3.so:_ZThn8_N4Sass7InspectD1Ev
_sass.abi3.so:base64_encode_block
_sass.abi3.so:base64_encode_blockend
_sass.abi3.so:base64_encode_value
_sass.abi3.so:base64_init_encodestate
_sass.abi3.so:libsass_language_version
_sass.abi3.so:libsass_version
_sass.abi3.so:sass2scss
_sass.abi3.so:sass2scss_version
_sass.abi3.so:sass_alloc_memory
_sass.abi3.so:sass_boolean_get_value
_sass.abi3.so:sass_boolean_set_value
_sass.abi3.so:sass_callee_get_column
_sass.abi3.so:sass_callee_get_env
_sass.abi3.so:sass_callee_get_line
_sass.abi3.so:sass_callee_get_name
_sass.abi3.so:sass_callee_get_path
_sass.abi3.so:sass_callee_get_type
_sass.abi3.so:sass_clone_value
_sass.abi3.so:sass_color_get_a
_sass.abi3.so:sass_color_get_b
_sass.abi3.so:sass_color_get_g
_sass.abi3.so:sass_color_get_r
_sass.abi3.so:sass_color_set_a
_sass.abi3.so:sass_color_set_b
_sass.abi3.so:sass_color_set_g
_sass.abi3.so:sass_color_set_r
_sass.abi3.so:sass_compile_data_context
_sass.abi3.so:sass_compile_file_context
_sass.abi3.so:sass_compiler_execute
_sass.abi3.so:sass_compiler_find_file
_sass.abi3.so:sass_compiler_find_include
_sass.abi3.so:sass_compiler_get_callee_entry
_sass.abi3.so:sass_compiler_get_callee_stack_size
_sass.abi3.so:sass_compiler_get_context
_sass.abi3.so:sass_compiler_get_import_entry
_sass.abi3.so:sass_compiler_get_import_stack_size
_sass.abi3.so:sass_compiler_get_last_callee
_sass.abi3.so:sass_compiler_get_last_import
_sass.abi3.so:sass_compiler_get_options
_sass.abi3.so:sass_compiler_get_state
_sass.abi3.so:sass_compiler_parse
_sass.abi3.so:sass_context_get_error_column
_sass.abi3.so:sass_context_get_error_file
_sass.abi3.so:sass_context_get_error_json
_sass.abi3.so:sass_context_get_error_line
_sass.abi3.so:sass_context_get_error_message
_sass.abi3.so:sass_context_get_error_src
_sass.abi3.so:sass_context_get_error_status
_sass.abi3.so:sass_context_get_error_text
_sass.abi3.so:sass_context_get_included_files
_sass.abi3.so:sass_context_get_included_files_size
_sass.abi3.so:sass_context_get_options
_sass.abi3.so:sass_context_get_output_string
_sass.abi3.so:sass_context_get_source_map_string
_sass.abi3.so:sass_context_take_error_file
_sass.abi3.so:sass_context_take_error_json
_sass.abi3.so:sass_context_take_error_message
_sass.abi3.so:sass_context_take_error_src
_sass.abi3.so:sass_context_take_error_text
_sass.abi3.so:sass_context_take_included_files
_sass.abi3.so:sass_context_take_output_string
_sass.abi3.so:sass_context_take_source_map_string
_sass.abi3.so:sass_copy_c_string
_sass.abi3.so:sass_data_context_get_context
_sass.abi3.so:sass_data_context_get_options
_sass.abi3.so:sass_data_context_set_options
_sass.abi3.so:sass_delete_compiler
_sass.abi3.so:sass_delete_data_context
_sass.abi3.so:sass_delete_file_context
_sass.abi3.so:sass_delete_function
_sass.abi3.so:sass_delete_function_list
_sass.abi3.so:sass_delete_import
_sass.abi3.so:sass_delete_import_list
_sass.abi3.so:sass_delete_importer
_sass.abi3.so:sass_delete_importer_list
_sass.abi3.so:sass_delete_options
_sass.abi3.so:sass_delete_value
_sass.abi3.so:sass_env_get_global
_sass.abi3.so:sass_env_get_lexical
_sass.abi3.so:sass_env_get_local
_sass.abi3.so:sass_env_set_global
_sass.abi3.so:sass_env_set_lexical
_sass.abi3.so:sass_env_set_local
_sass.abi3.so:sass_error_get_message
_sass.abi3.so:sass_error_set_message
_sass.abi3.so:sass_file_context_get_context
_sass.abi3.so:sass_file_context_get_options
_sass.abi3.so:sass_file_context_set_options
_sass.abi3.so:sass_find_file
_sass.abi3.so:sass_find_include
_sass.abi3.so:sass_free_memory
_sass.abi3.so:sass_function_get_cookie
_sass.abi3.so:sass_function_get_function
_sass.abi3.so:sass_function_get_list_entry
_sass.abi3.so:sass_function_get_signature
_sass.abi3.so:sass_function_set_list_entry
_sass.abi3.so:sass_import_get_abs_path
_sass.abi3.so:sass_import_get_error_column
_sass.abi3.so:sass_import_get_error_line
_sass.abi3.so:sass_import_get_error_message
_sass.abi3.so:sass_import_get_imp_path
_sass.abi3.so:sass_import_get_list_entry
_sass.abi3.so:sass_import_get_source
_sass.abi3.so:sass_import_get_srcmap
_sass.abi3.so:sass_import_set_error
_sass.abi3.so:sass_import_set_list_entry
_sass.abi3.so:sass_import_take_source
_sass.abi3.so:sass_import_take_srcmap
_sass.abi3.so:sass_importer_get_cookie
_sass.abi3.so:sass_importer_get_function
_sass.abi3.so:sass_importer_get_list_entry
_sass.abi3.so:sass_importer_get_priority
_sass.abi3.so:sass_importer_set_list_entry
_sass.abi3.so:sass_list_get_is_bracketed
_sass.abi3.so:sass_list_get_length
_sass.abi3.so:sass_list_get_separator
_sass.abi3.so:sass_list_get_value
_sass.abi3.so:sass_list_set_is_bracketed
_sass.abi3.so:sass_list_set_separator
_sass.abi3.so:sass_list_set_value
_sass.abi3.so:sass_make_boolean
_sass.abi3.so:sass_make_color
_sass.abi3.so:sass_make_data_compiler
_sass.abi3.so:sass_make_data_context
_sass.abi3.so:sass_make_error
_sass.abi3.so:sass_make_file_compiler
_sass.abi3.so:sass_make_file_context
_sass.abi3.so:sass_make_function
_sass.abi3.so:sass_make_function_list
_sass.abi3.so:sass_make_import
_sass.abi3.so:sass_make_import_entry
_sass.abi3.so:sass_make_import_list
_sass.abi3.so:sass_make_importer
_sass.abi3.so:sass_make_importer_list
_sass.abi3.so:sass_make_list
_sass.abi3.so:sass_make_map
_sass.abi3.so:sass_make_null
_sass.abi3.so:sass_make_number
_sass.abi3.so:sass_make_options
_sass.abi3.so:sass_make_qstring
_sass.abi3.so:sass_make_string
_sass.abi3.so:sass_make_warning
_sass.abi3.so:sass_map_get_key
_sass.abi3.so:sass_map_get_length
_sass.abi3.so:sass_map_get_value
_sass.abi3.so:sass_map_set_key
_sass.abi3.so:sass_map_set_value
_sass.abi3.so:sass_number_get_unit
_sass.abi3.so:sass_number_get_value
_sass.abi3.so:sass_number_set_unit
_sass.abi3.so:sass_number_set_value
_sass.abi3.so:sass_option_get_c_functions
_sass.abi3.so:sass_option_get_c_headers
_sass.abi3.so:sass_option_get_c_importers
_sass.abi3.so:sass_option_get_include_path
_sass.abi3.so:sass_option_get_include_path_size
_sass.abi3.so:sass_option_get_indent
_sass.abi3.so:sass_option_get_input_path
_sass.abi3.so:sass_option_get_is_indented_syntax_src
_sass.abi3.so:sass_option_get_linefeed
_sass.abi3.so:sass_option_get_omit_source_map_url
_sass.abi3.so:sass_option_get_output_path
_sass.abi3.so:sass_option_get_output_style
_sass.abi3.so:sass_option_get_plugin_path
_sass.abi3.so:sass_option_get_plugin_path_size
_sass.abi3.so:sass_option_get_precision
_sass.abi3.so:sass_option_get_source_comments
_sass.abi3.so:sass_option_get_source_map_contents
_sass.abi3.so:sass_option_get_source_map_embed
_sass.abi3.so:sass_option_get_source_map_file
_sass.abi3.so:sass_option_get_source_map_file_urls
_sass.abi3.so:sass_option_get_source_map_root
_sass.abi3.so:sass_option_push_include_path
_sass.abi3.so:sass_option_push_plugin_path
_sass.abi3.so:sass_option_set_c_functions
_sass.abi3.so:sass_option_set_c_headers
_sass.abi3.so:sass_option_set_c_importers
_sass.abi3.so:sass_option_set_include_path
_sass.abi3.so:sass_option_set_indent
_sass.abi3.so:sass_option_set_input_path
_sass.abi3.so:sass_option_set_is_indented_syntax_src
_sass.abi3.so:sass_option_set_linefeed
_sass.abi3.so:sass_option_set_omit_source_map_url
_sass.abi3.so:sass_option_set_output_path
_sass.abi3.so:sass_option_set_output_style
_sass.abi3.so:sass_option_set_plugin_path
_sass.abi3.so:sass_option_set_precision
_sass.abi3.so:sass_option_set_source_comments
_sass.abi3.so:sass_option_set_source_map_contents
_sass.abi3.so:sass_option_set_source_map_embed
_sass.abi3.so:sass_option_set_source_map_file
_sass.abi3.so:sass_option_set_source_map_file_urls
_sass.abi3.so:sass_option_set_source_map_root
_sass.abi3.so:sass_string_get_value
_sass.abi3.so:sass_string_is_quoted
_sass.abi3.so:sass_string_quote
_sass.abi3.so:sass_string_set_quoted
_sass.abi3.so:sass_string_set_value
_sass.abi3.so:sass_string_unquote
_sass.abi3.so:sass_value_get_tag
_sass.abi3.so:sass_value_is_boolean
_sass.abi3.so:sass_value_is_color
_sass.abi3.so:sass_value_is_error
_sass.abi3.so:sass_value_is_list
_sass.abi3.so:sass_value_is_map
_sass.abi3.so:sass_value_is_null
_sass.abi3.so:sass_value_is_number
_sass.abi3.so:sass_value_is_string
_sass.abi3.so:sass_value_is_warning
_sass.abi3.so:sass_value_op
_sass.abi3.so:sass_value_stringify
_sass.abi3.so:sass_warning_get_message
_sass.abi3.so:sass_warning_set_message
