cryptopageplugin.so:qt_plugin_instance
cryptopageplugin.so:qt_plugin_query_metadata_v2
datenums.so:__bss_start
datenums.so:_edata
datenums.so:_end
datenums.so:qt_plugin_instance
datenums.so:qt_plugin_query_metadata_v2
emailaddressselectionldapdialogplugin.so:qt_plugin_instance
emailaddressselectionldapdialogplugin.so:qt_plugin_query_metadata_v2
emaillineeditplugin.so:__bss_start
emaillineeditplugin.so:_edata
emaillineeditplugin.so:_end
emaillineeditplugin.so:qt_plugin_instance
emaillineeditplugin.so:qt_plugin_query_metadata_v2
evolutionv1importerplugin.so:__bss_start
evolutionv1importerplugin.so:_edata
evolutionv1importerplugin.so:_end
evolutionv1importerplugin.so:qt_plugin_instance
evolutionv1importerplugin.so:qt_plugin_query_metadata_v2
evolutionv2importerplugin.so:__bss_start
evolutionv2importerplugin.so:_edata
evolutionv2importerplugin.so:_end
evolutionv2importerplugin.so:qt_plugin_instance
evolutionv2importerplugin.so:qt_plugin_query_metadata_v2
gearyimporterplugin.so:__bss_start
gearyimporterplugin.so:_edata
gearyimporterplugin.so:_end
gearyimporterplugin.so:qt_plugin_instance
gearyimporterplugin.so:qt_plugin_query_metadata_v2
imapfoldercompletionplugin.so:__bss_start
imapfoldercompletionplugin.so:_edata
imapfoldercompletionplugin.so:_end
imapfoldercompletionplugin.so:qt_plugin_instance
imapfoldercompletionplugin.so:qt_plugin_query_metadata_v2
kaddressbook_checkgravatarplugin.so:qt_plugin_instance
kaddressbook_checkgravatarplugin.so:qt_plugin_query_metadata_v2
kaddressbook_importexportgmxplugin.so:qt_plugin_instance
kaddressbook_importexportgmxplugin.so:qt_plugin_query_metadata_v2
kaddressbook_importexportldapplugin.so:qt_plugin_instance
kaddressbook_importexportldapplugin.so:qt_plugin_query_metadata_v2
kaddressbook_importexportldifplugin.so:qt_plugin_instance
kaddressbook_importexportldifplugin.so:qt_plugin_query_metadata_v2
kaddressbook_importexportvcardplugin.so:qt_plugin_instance
kaddressbook_importexportvcardplugin.so:qt_plugin_query_metadata_v2
kaddressbook_importexportwindowscontactplugin.so:qt_plugin_instance
kaddressbook_importexportwindowscontactplugin.so:qt_plugin_query_metadata_v2
kaddressbook_mergecontactsplugin.so:qt_plugin_instance
kaddressbook_mergecontactsplugin.so:qt_plugin_query_metadata_v2
kaddressbook_searchduplicatesplugin.so:qt_plugin_instance
kaddressbook_searchduplicatesplugin.so:qt_plugin_query_metadata_v2
kaddressbook_sendmailplugin.so:qt_plugin_instance
kaddressbook_sendmailplugin.so:qt_plugin_query_metadata_v2
kaddressbook_sendvcardsplugin.so:qt_plugin_instance
kaddressbook_sendvcardsplugin.so:qt_plugin_query_metadata_v2
kitinerary_ktexttemplate_extension.so:qt_plugin_instance
kitinerary_ktexttemplate_extension.so:qt_plugin_query_metadata_v2
kmail_akonadidatabasetoolplugin.so:qt_plugin_instance
kmail_akonadidatabasetoolplugin.so:qt_plugin_query_metadata_v2
kmail_antispamplugin.so:__bss_start
kmail_antispamplugin.so:_edata
kmail_antispamplugin.so:_end
kmail_antispamplugin.so:qt_plugin_instance
kmail_antispamplugin.so:qt_plugin_query_metadata_v2
kmail_antivirusplugin.so:__bss_start
kmail_antivirusplugin.so:_edata
kmail_antivirusplugin.so:_end
kmail_antivirusplugin.so:qt_plugin_instance
kmail_antivirusplugin.so:qt_plugin_query_metadata_v2
kmail_autocorrectioneditorplugin.so:__bss_start
kmail_autocorrectioneditorplugin.so:_edata
kmail_autocorrectioneditorplugin.so:_end
kmail_autocorrectioneditorplugin.so:qt_plugin_instance
kmail_autocorrectioneditorplugin.so:qt_plugin_query_metadata_v2
kmail_automaticaddcontactseditorplugin.so:__bss_start
kmail_automaticaddcontactseditorplugin.so:_edata
kmail_automaticaddcontactseditorplugin.so:_end
kmail_automaticaddcontactseditorplugin.so:qt_plugin_instance
kmail_automaticaddcontactseditorplugin.so:qt_plugin_query_metadata_v2
kmail_changecaseeditorplugin.so:__bss_start
kmail_changecaseeditorplugin.so:_edata
kmail_changecaseeditorplugin.so:_end
kmail_changecaseeditorplugin.so:qt_plugin_instance
kmail_changecaseeditorplugin.so:qt_plugin_query_metadata_v2
kmail_checkbeforesendeditorplugin.so:__bss_start
kmail_checkbeforesendeditorplugin.so:_edata
kmail_checkbeforesendeditorplugin.so:_end
kmail_checkbeforesendeditorplugin.so:qt_plugin_instance
kmail_checkbeforesendeditorplugin.so:qt_plugin_query_metadata_v2
kmail_confirmaddresseditorplugin.so:__bss_start
kmail_confirmaddresseditorplugin.so:_edata
kmail_confirmaddresseditorplugin.so:_end
kmail_confirmaddresseditorplugin.so:qt_plugin_instance
kmail_confirmaddresseditorplugin.so:qt_plugin_query_metadata_v2
kmail_confirmbeforedeletingplugin.so:__bss_start
kmail_confirmbeforedeletingplugin.so:_edata
kmail_confirmbeforedeletingplugin.so:_end
kmail_confirmbeforedeletingplugin.so:qt_plugin_instance
kmail_confirmbeforedeletingplugin.so:qt_plugin_query_metadata_v2
kmail_expertplugin.so:qt_plugin_instance
kmail_expertplugin.so:qt_plugin_query_metadata_v2
kmail_externalcomposereditorplugin.so:__bss_start
kmail_externalcomposereditorplugin.so:_edata
kmail_externalcomposereditorplugin.so:_end
kmail_externalcomposereditorplugin.so:qt_plugin_instance
kmail_externalcomposereditorplugin.so:qt_plugin_query_metadata_v2
kmail_grammalecteplugin.so:__bss_start
kmail_grammalecteplugin.so:_edata
kmail_grammalecteplugin.so:_end
kmail_grammalecteplugin.so:qt_plugin_instance
kmail_grammalecteplugin.so:qt_plugin_query_metadata_v2
kmail_insertemaileditorplugin.so:__bss_start
kmail_insertemaileditorplugin.so:_edata
kmail_insertemaileditorplugin.so:_end
kmail_insertemaileditorplugin.so:qt_plugin_instance
kmail_insertemaileditorplugin.so:qt_plugin_query_metadata_v2
kmail_insertshorturleditorplugin.so:__bss_start
kmail_insertshorturleditorplugin.so:_edata
kmail_insertshorturleditorplugin.so:_end
kmail_insertshorturleditorplugin.so:qt_plugin_instance
kmail_insertshorturleditorplugin.so:qt_plugin_query_metadata_v2
kmail_insertspecialcharactereditorplugin.so:__bss_start
kmail_insertspecialcharactereditorplugin.so:_edata
kmail_insertspecialcharactereditorplugin.so:_end
kmail_insertspecialcharactereditorplugin.so:qt_plugin_instance
kmail_insertspecialcharactereditorplugin.so:qt_plugin_query_metadata_v2
kmail_languagetoolplugin.so:__bss_start
kmail_languagetoolplugin.so:_edata
kmail_languagetoolplugin.so:_end
kmail_languagetoolplugin.so:qt_plugin_instance
kmail_languagetoolplugin.so:qt_plugin_query_metadata_v2
kmail_markdownplugin.so:__bss_start
kmail_markdownplugin.so:_edata
kmail_markdownplugin.so:_end
kmail_markdownplugin.so:qt_plugin_instance
kmail_markdownplugin.so:qt_plugin_query_metadata_v2
kmail_nonbreakingspaceeditorplugin.so:__bss_start
kmail_nonbreakingspaceeditorplugin.so:_edata
kmail_nonbreakingspaceeditorplugin.so:_end
kmail_nonbreakingspaceeditorplugin.so:qt_plugin_instance
kmail_nonbreakingspaceeditorplugin.so:qt_plugin_query_metadata_v2
kmail_quicktextplugin.so:__bss_start
kmail_quicktextplugin.so:_edata
kmail_quicktextplugin.so:_end
kmail_quicktextplugin.so:qt_plugin_instance
kmail_quicktextplugin.so:qt_plugin_query_metadata_v2
kmail_sharetexteditorplugin.so:__bss_start
kmail_sharetexteditorplugin.so:_edata
kmail_sharetexteditorplugin.so:_end
kmail_sharetexteditorplugin.so:qt_plugin_instance
kmail_sharetexteditorplugin.so:qt_plugin_query_metadata_v2
kmail_zoomtexteditorplugin.so:__bss_start
kmail_zoomtexteditorplugin.so:_edata
kmail_zoomtexteditorplugin.so:_end
kmail_zoomtexteditorplugin.so:qt_plugin_instance
kmail_zoomtexteditorplugin.so:qt_plugin_query_metadata_v2
libakonadidatasetools.so.6:_ZN35AkonadiDatabaseToolsPluginInterface12createActionEP17KActionCollection
libakonadidatasetools.so.6:_ZN35AkonadiDatabaseToolsPluginInterface13slotActivatedEv
libakonadidatasetools.so.6:_ZN35AkonadiDatabaseToolsPluginInterface4execEv
libakonadidatasetools.so.6:_ZN35AkonadiDatabaseToolsPluginInterfaceC1EP7QObject
libakonadidatasetools.so.6:_ZN35AkonadiDatabaseToolsPluginInterfaceC2EP7QObject
libakonadidatasetools.so.6:_ZN35AkonadiDatabaseToolsPluginInterfaceD0Ev
libakonadidatasetools.so.6:_ZN35AkonadiDatabaseToolsPluginInterfaceD1Ev
libakonadidatasetools.so.6:_ZN35AkonadiDatabaseToolsPluginInterfaceD2Ev
libdkimverifyconfigure.so.6:_ZN19DKIMConfigureDialog10readConfigEv
libdkimverifyconfigure.so.6:_ZN19DKIMConfigureDialog11qt_metacallEN11QMetaObject4CallEiPPv
libdkimverifyconfigure.so.6:_ZN19DKIMConfigureDialog11qt_metacastEPKc
libdkimverifyconfigure.so.6:_ZN19DKIMConfigureDialog11writeConfigEv
libdkimverifyconfigure.so.6:_ZN19DKIMConfigureDialog12slotAcceptedEv
libdkimverifyconfigure.so.6:_ZN19DKIMConfigureDialog16staticMetaObjectE
libdkimverifyconfigure.so.6:_ZN19DKIMConfigureDialog9slotResetEv
libdkimverifyconfigure.so.6:_ZN19DKIMConfigureDialogC1EP7QWidget
libdkimverifyconfigure.so.6:_ZN19DKIMConfigureDialogC2EP7QWidget
libdkimverifyconfigure.so.6:_ZN19DKIMConfigureDialogD0Ev
libdkimverifyconfigure.so.6:_ZN19DKIMConfigureDialogD1Ev
libdkimverifyconfigure.so.6:_ZN19DKIMConfigureDialogD2Ev
libdkimverifyconfigure.so.6:_ZNK19DKIMConfigureDialog10metaObjectEv
libdkimverifyconfigure.so.6:_ZThn16_N19DKIMConfigureDialogD0Ev
libdkimverifyconfigure.so.6:_ZThn16_N19DKIMConfigureDialogD1Ev
libdkimverifyconfigure.so.6:__bss_start
libdkimverifyconfigure.so.6:_edata
libdkimverifyconfigure.so.6:_end
libexpireaccounttrashfolderconfig.so.6:_ZN36ExpireAccountTrashFolderConfigDialog10readConfigEv
libexpireaccounttrashfolderconfig.so.6:_ZN36ExpireAccountTrashFolderConfigDialog11qt_metacallEN11QMetaObject4CallEiPPv
libexpireaccounttrashfolderconfig.so.6:_ZN36ExpireAccountTrashFolderConfigDialog11qt_metacastEPKc
libexpireaccounttrashfolderconfig.so.6:_ZN36ExpireAccountTrashFolderConfigDialog11writeConfigEv
libexpireaccounttrashfolderconfig.so.6:_ZN36ExpireAccountTrashFolderConfigDialog16staticMetaObjectE
libexpireaccounttrashfolderconfig.so.6:_ZN36ExpireAccountTrashFolderConfigDialogC1EP7QWidget
libexpireaccounttrashfolderconfig.so.6:_ZN36ExpireAccountTrashFolderConfigDialogC2EP7QWidget
libexpireaccounttrashfolderconfig.so.6:_ZN36ExpireAccountTrashFolderConfigDialogD0Ev
libexpireaccounttrashfolderconfig.so.6:_ZN36ExpireAccountTrashFolderConfigDialogD1Ev
libexpireaccounttrashfolderconfig.so.6:_ZN36ExpireAccountTrashFolderConfigDialogD2Ev
libexpireaccounttrashfolderconfig.so.6:_ZNK36ExpireAccountTrashFolderConfigDialog10metaObjectEv
libexpireaccounttrashfolderconfig.so.6:_ZThn16_N36ExpireAccountTrashFolderConfigDialogD0Ev
libexpireaccounttrashfolderconfig.so.6:_ZThn16_N36ExpireAccountTrashFolderConfigDialogD1Ev
libexpireaccounttrashfolderconfig.so.6:__bss_start
libexpireaccounttrashfolderconfig.so.6:_edata
libexpireaccounttrashfolderconfig.so.6:_end
libfolderconfiguresettings.so.6:_ZN29FolderConfigureSettingsDialog10readConfigEv
libfolderconfiguresettings.so.6:_ZN29FolderConfigureSettingsDialog11qt_metacallEN11QMetaObject4CallEiPPv
libfolderconfiguresettings.so.6:_ZN29FolderConfigureSettingsDialog11qt_metacastEPKc
libfolderconfiguresettings.so.6:_ZN29FolderConfigureSettingsDialog11writeConfigEv
libfolderconfiguresettings.so.6:_ZN29FolderConfigureSettingsDialog16staticMetaObjectE
libfolderconfiguresettings.so.6:_ZN29FolderConfigureSettingsDialog8slotSaveEv
libfolderconfiguresettings.so.6:_ZN29FolderConfigureSettingsDialogC1EP7QWidget
libfolderconfiguresettings.so.6:_ZN29FolderConfigureSettingsDialogC2EP7QWidget
libfolderconfiguresettings.so.6:_ZN29FolderConfigureSettingsDialogD0Ev
libfolderconfiguresettings.so.6:_ZN29FolderConfigureSettingsDialogD1Ev
libfolderconfiguresettings.so.6:_ZN29FolderConfigureSettingsDialogD2Ev
libfolderconfiguresettings.so.6:_ZNK29FolderConfigureSettingsDialog10metaObjectEv
libfolderconfiguresettings.so.6:_ZThn16_N29FolderConfigureSettingsDialogD0Ev
libfolderconfiguresettings.so.6:_ZThn16_N29FolderConfigureSettingsDialogD1Ev
libfolderconfiguresettings.so.6:__bss_start
libfolderconfiguresettings.so.6:_edata
libfolderconfiguresettings.so.6:_end
libkaddressbookmergelibprivate.so.6:_ZN16KABMergeContacts17_k_mergeStubModelE
libkaddressbookmergelibprivate.so.6:_ZN16KABMergeContacts18MergeContactWidget11qt_metacallEN11QMetaObject4CallEiPPv
libkaddressbookmergelibprivate.so.6:_ZN16KABMergeContacts18MergeContactWidget11qt_metacastEPKc
libkaddressbookmergelibprivate.so.6:_ZN16KABMergeContacts18MergeContactWidget11setContactsERK5QListIN7Akonadi4ItemEE
libkaddressbookmergelibprivate.so.6:_ZN16KABMergeContacts18MergeContactWidget13contactMergedERKN7Akonadi4ItemE
libkaddressbookmergelibprivate.so.6:_ZN16KABMergeContacts18MergeContactWidget13slotMergeDoneERKN7Akonadi4ItemE
libkaddressbookmergelibprivate.so.6:_ZN16KABMergeContacts18MergeContactWidget16staticMetaObjectE
libkaddressbookmergelibprivate.so.6:_ZN16KABMergeContacts18MergeContactWidget17slotMergeContactsEv
libkaddressbookmergelibprivate.so.6:_ZN16KABMergeContacts18MergeContactWidget20slotAutomaticMergingEv
libkaddressbookmergelibprivate.so.6:_ZN16KABMergeContacts18MergeContactWidget21customizeMergeContactERK5QListIN7Akonadi4ItemEE6QFlagsINS_13MergeContacts19ConflictInformationEERKNS2_10CollectionE
libkaddressbookmergelibprivate.so.6:_ZN16KABMergeContacts18MergeContactWidget21slotUpdateMergeButtonEv
libkaddressbookmergelibprivate.so.6:_ZN16KABMergeContacts18MergeContactWidget28slotCustomizeMergingContactsEv
libkaddressbookmergelibprivate.so.6:_ZN16KABMergeContacts18MergeContactWidgetC1EP7QWidget
libkaddressbookmergelibprivate.so.6:_ZN16KABMergeContacts18MergeContactWidgetC2EP7QWidget
libkaddressbookmergelibprivate.so.6:_ZN16KABMergeContacts18MergeContactWidgetD0Ev
libkaddressbookmergelibprivate.so.6:_ZN16KABMergeContacts18MergeContactWidgetD1Ev
libkaddressbookmergelibprivate.so.6:_ZN16KABMergeContacts18MergeContactWidgetD2Ev
libkaddressbookmergelibprivate.so.6:_ZN16KABMergeContacts19MergeContactsDialog10readConfigEv
libkaddressbookmergelibprivate.so.6:_ZN16KABMergeContacts19MergeContactsDialog11qt_metacallEN11QMetaObject4CallEiPPv
libkaddressbookmergelibprivate.so.6:_ZN16KABMergeContacts19MergeContactsDialog11qt_metacastEPKc
libkaddressbookmergelibprivate.so.6:_ZN16KABMergeContacts19MergeContactsDialog11setContactsERK5QListIN7Akonadi4ItemEE
libkaddressbookmergelibprivate.so.6:_ZN16KABMergeContacts19MergeContactsDialog11writeConfigEv
libkaddressbookmergelibprivate.so.6:_ZN16KABMergeContacts19MergeContactsDialog16staticMetaObjectE
libkaddressbookmergelibprivate.so.6:_ZN16KABMergeContacts19MergeContactsDialog17slotContactMergedERKN7Akonadi4ItemE
libkaddressbookmergelibprivate.so.6:_ZN16KABMergeContacts19MergeContactsDialog25slotCustomizeMergeContactERK5QListIN7Akonadi4ItemEE6QFlagsINS_13MergeContacts19ConflictInformationEERKNS2_10CollectionE
libkaddressbookmergelibprivate.so.6:_ZN16KABMergeContacts19MergeContactsDialogC1EP7QWidget
libkaddressbookmergelibprivate.so.6:_ZN16KABMergeContacts19MergeContactsDialogC2EP7QWidget
libkaddressbookmergelibprivate.so.6:_ZN16KABMergeContacts19MergeContactsDialogD0Ev
libkaddressbookmergelibprivate.so.6:_ZN16KABMergeContacts19MergeContactsDialogD1Ev
libkaddressbookmergelibprivate.so.6:_ZN16KABMergeContacts19MergeContactsDialogD2Ev
libkaddressbookmergelibprivate.so.6:_ZN16KABMergeContacts25ResultDuplicateTreeWidget11changeStateEP15QTreeWidgetItemb
libkaddressbookmergelibprivate.so.6:_ZN16KABMergeContacts25ResultDuplicateTreeWidget11qt_metacallEN11QMetaObject4CallEiPPv
libkaddressbookmergelibprivate.so.6:_ZN16KABMergeContacts25ResultDuplicateTreeWidget11qt_metacastEPKc
libkaddressbookmergelibprivate.so.6:_ZN16KABMergeContacts25ResultDuplicateTreeWidget11setContactsERK5QListIS1_IN7Akonadi4ItemEEE
libkaddressbookmergelibprivate.so.6:_ZN16KABMergeContacts25ResultDuplicateTreeWidget13checkAllItemsEv
libkaddressbookmergelibprivate.so.6:_ZN16KABMergeContacts25ResultDuplicateTreeWidget15slotItemChangedEP15QTreeWidgetItemi
libkaddressbookmergelibprivate.so.6:_ZN16KABMergeContacts25ResultDuplicateTreeWidget15uncheckAllItemsEv
libkaddressbookmergelibprivate.so.6:_ZN16KABMergeContacts25ResultDuplicateTreeWidget16staticMetaObjectE
libkaddressbookmergelibprivate.so.6:_ZN16KABMergeContacts25ResultDuplicateTreeWidget18showContactPreviewERKN7Akonadi4ItemE
libkaddressbookmergelibprivate.so.6:_ZN16KABMergeContacts25ResultDuplicateTreeWidget24slotItemSelectionChangedEv
libkaddressbookmergelibprivate.so.6:_ZN16KABMergeContacts25ResultDuplicateTreeWidgetC1EP7QWidget
libkaddressbookmergelibprivate.so.6:_ZN16KABMergeContacts25ResultDuplicateTreeWidgetC2EP7QWidget
libkaddressbookmergelibprivate.so.6:_ZN16KABMergeContacts25ResultDuplicateTreeWidgetD0Ev
libkaddressbookmergelibprivate.so.6:_ZN16KABMergeContacts25ResultDuplicateTreeWidgetD1Ev
libkaddressbookmergelibprivate.so.6:_ZN16KABMergeContacts25ResultDuplicateTreeWidgetD2Ev
libkaddressbookmergelibprivate.so.6:_ZN16KABMergeContacts27SearchDuplicateResultWidget11qt_metacallEN11QMetaObject4CallEiPPv
libkaddressbookmergelibprivate.so.6:_ZN16KABMergeContacts27SearchDuplicateResultWidget11qt_metacastEPKc
libkaddressbookmergelibprivate.so.6:_ZN16KABMergeContacts27SearchDuplicateResultWidget11setContactsERK5QListIS1_IN7Akonadi4ItemEEE
libkaddressbookmergelibprivate.so.6:_ZN16KABMergeContacts27SearchDuplicateResultWidget12mergeContactEv
libkaddressbookmergelibprivate.so.6:_ZN16KABMergeContacts27SearchDuplicateResultWidget13contactMergedERKN7Akonadi4ItemE
libkaddressbookmergelibprivate.so.6:_ZN16KABMergeContacts27SearchDuplicateResultWidget13slotExpandAllEv
libkaddressbookmergelibprivate.so.6:_ZN16KABMergeContacts27SearchDuplicateResultWidget13slotMergeDoneERKN7Akonadi4ItemE
libkaddressbookmergelibprivate.so.6:_ZN16KABMergeContacts27SearchDuplicateResultWidget13slotSelectAllEv
libkaddressbookmergelibprivate.so.6:_ZN16KABMergeContacts27SearchDuplicateResultWidget15slotCollapseAllEv
libkaddressbookmergelibprivate.so.6:_ZN16KABMergeContacts27SearchDuplicateResultWidget15slotDeselectAllEv
libkaddressbookmergelibprivate.so.6:_ZN16KABMergeContacts27SearchDuplicateResultWidget16slotMergeContactEv
libkaddressbookmergelibprivate.so.6:_ZN16KABMergeContacts27SearchDuplicateResultWidget16staticMetaObjectE
libkaddressbookmergelibprivate.so.6:_ZN16KABMergeContacts27SearchDuplicateResultWidget20slotAutomaticMergingEv
libkaddressbookmergelibprivate.so.6:_ZN16KABMergeContacts27SearchDuplicateResultWidget21customizeMergeContactERK5QListINS_19MergeConflictResultEERKN7Akonadi10CollectionE
libkaddressbookmergelibprivate.so.6:_ZN16KABMergeContacts27SearchDuplicateResultWidget21slotUpdateMergeButtonEv
libkaddressbookmergelibprivate.so.6:_ZN16KABMergeContacts27SearchDuplicateResultWidget28slotCustomizeMergingContactsEv
libkaddressbookmergelibprivate.so.6:_ZN16KABMergeContacts27SearchDuplicateResultWidget30slotCustomContextMenuRequestedERK6QPoint
libkaddressbookmergelibprivate.so.6:_ZN16KABMergeContacts27SearchDuplicateResultWidget9mergeDoneEv
libkaddressbookmergelibprivate.so.6:_ZN16KABMergeContacts27SearchDuplicateResultWidgetC1EP7QWidget
libkaddressbookmergelibprivate.so.6:_ZN16KABMergeContacts27SearchDuplicateResultWidgetC2EP7QWidget
libkaddressbookmergelibprivate.so.6:_ZN16KABMergeContacts27SearchDuplicateResultWidgetD0Ev
libkaddressbookmergelibprivate.so.6:_ZN16KABMergeContacts27SearchDuplicateResultWidgetD1Ev
libkaddressbookmergelibprivate.so.6:_ZN16KABMergeContacts27SearchDuplicateResultWidgetD2Ev
libkaddressbookmergelibprivate.so.6:_ZN16KABMergeContacts28MergeContactSelectListWidget11qt_metacallEN11QMetaObject4CallEiPPv
libkaddressbookmergelibprivate.so.6:_ZN16KABMergeContacts28MergeContactSelectListWidget11qt_metacastEPKc
libkaddressbookmergelibprivate.so.6:_ZN16KABMergeContacts28MergeContactSelectListWidget11setContactsENS_13MergeContacts19ConflictInformationERK5QListIN9KContacts9AddresseeEE
libkaddressbookmergelibprivate.so.6:_ZN16KABMergeContacts28MergeContactSelectListWidget11updateTitleEv
libkaddressbookmergelibprivate.so.6:_ZN16KABMergeContacts28MergeContactSelectListWidget16staticMetaObjectE
libkaddressbookmergelibprivate.so.6:_ZN16KABMergeContacts28MergeContactSelectListWidget7addItemERK7QStringRK5QIcon
libkaddressbookmergelibprivate.so.6:_ZN16KABMergeContacts28MergeContactSelectListWidget8fillListERK5QListIN9KContacts9AddresseeEE
libkaddressbookmergelibprivate.so.6:_ZN16KABMergeContacts28MergeContactSelectListWidgetC1EP7QWidget
libkaddressbookmergelibprivate.so.6:_ZN16KABMergeContacts28MergeContactSelectListWidgetC2EP7QWidget
libkaddressbookmergelibprivate.so.6:_ZN16KABMergeContacts28MergeContactSelectListWidgetD0Ev
libkaddressbookmergelibprivate.so.6:_ZN16KABMergeContacts28MergeContactSelectListWidgetD1Ev
libkaddressbookmergelibprivate.so.6:_ZN16KABMergeContacts28MergeContactSelectListWidgetD2Ev
libkaddressbookmergelibprivate.so.6:_ZN16KABMergeContacts29ResultDuplicateTreeWidgetItem11contactNameERKN9KContacts9AddresseeE
libkaddressbookmergelibprivate.so.6:_ZN16KABMergeContacts29ResultDuplicateTreeWidgetItem11displayNameERKN7Akonadi4ItemE
libkaddressbookmergelibprivate.so.6:_ZN16KABMergeContacts29ResultDuplicateTreeWidgetItem14setDisplayNameEv
libkaddressbookmergelibprivate.so.6:_ZN16KABMergeContacts29ResultDuplicateTreeWidgetItem7setItemERKN7Akonadi4ItemE
libkaddressbookmergelibprivate.so.6:_ZN16KABMergeContacts29ResultDuplicateTreeWidgetItemC1EP11QTreeWidget
libkaddressbookmergelibprivate.so.6:_ZN16KABMergeContacts29ResultDuplicateTreeWidgetItemC2EP11QTreeWidget
libkaddressbookmergelibprivate.so.6:_ZN16KABMergeContacts29ResultDuplicateTreeWidgetItemD0Ev
libkaddressbookmergelibprivate.so.6:_ZN16KABMergeContacts29ResultDuplicateTreeWidgetItemD1Ev
libkaddressbookmergelibprivate.so.6:_ZN16KABMergeContacts29ResultDuplicateTreeWidgetItemD2Ev
libkaddressbookmergelibprivate.so.6:_ZN16KABMergeContacts33_k_searchDuplicateResultStubModelE
libkaddressbookmergelibprivate.so.6:_ZN16KABMergeContacts34MergeContactLoseInformationWarning11qt_metacallEN11QMetaObject4CallEiPPv
libkaddressbookmergelibprivate.so.6:_ZN16KABMergeContacts34MergeContactLoseInformationWarning11qt_metacastEPKc
libkaddressbookmergelibprivate.so.6:_ZN16KABMergeContacts34MergeContactLoseInformationWarning15continueMergingEv
libkaddressbookmergelibprivate.so.6:_ZN16KABMergeContacts34MergeContactLoseInformationWarning16staticMetaObjectE
libkaddressbookmergelibprivate.so.6:_ZN16KABMergeContacts34MergeContactLoseInformationWarning18slotCustomizeMergeEv
libkaddressbookmergelibprivate.so.6:_ZN16KABMergeContacts34MergeContactLoseInformationWarning20slotAutomaticMergingEv
libkaddressbookmergelibprivate.so.6:_ZN16KABMergeContacts34MergeContactLoseInformationWarning24customizeMergingContactsEv
libkaddressbookmergelibprivate.so.6:_ZN16KABMergeContacts34MergeContactLoseInformationWarningC1EP7QWidget
libkaddressbookmergelibprivate.so.6:_ZN16KABMergeContacts34MergeContactLoseInformationWarningC2EP7QWidget
libkaddressbookmergelibprivate.so.6:_ZN16KABMergeContacts34MergeContactLoseInformationWarningD0Ev
libkaddressbookmergelibprivate.so.6:_ZN16KABMergeContacts34MergeContactLoseInformationWarningD1Ev
libkaddressbookmergelibprivate.so.6:_ZN16KABMergeContacts34MergeContactLoseInformationWarningD2Ev
libkaddressbookmergelibprivate.so.6:_ZN16KABMergeContacts35MergeContactSelectInformationWidget11qt_metacallEN11QMetaObject4CallEiPPv
libkaddressbookmergelibprivate.so.6:_ZN16KABMergeContacts35MergeContactSelectInformationWidget11qt_metacastEPKc
libkaddressbookmergelibprivate.so.6:_ZN16KABMergeContacts35MergeContactSelectInformationWidget11setContactsE6QFlagsINS_13MergeContacts19ConflictInformationEERK5QListIN7Akonadi4ItemEE
libkaddressbookmergelibprivate.so.6:_ZN16KABMergeContacts35MergeContactSelectInformationWidget13createContactERN9KContacts9AddresseeE
libkaddressbookmergelibprivate.so.6:_ZN16KABMergeContacts35MergeContactSelectInformationWidget16staticMetaObjectE
libkaddressbookmergelibprivate.so.6:_ZN16KABMergeContacts35MergeContactSelectInformationWidget20addInformationWidgetENS_13MergeContacts19ConflictInformationE
libkaddressbookmergelibprivate.so.6:_ZN16KABMergeContacts35MergeContactSelectInformationWidgetC1EP7QWidget
libkaddressbookmergelibprivate.so.6:_ZN16KABMergeContacts35MergeContactSelectInformationWidgetC2EP7QWidget
libkaddressbookmergelibprivate.so.6:_ZN16KABMergeContacts35MergeContactSelectInformationWidgetD0Ev
libkaddressbookmergelibprivate.so.6:_ZN16KABMergeContacts35MergeContactSelectInformationWidgetD1Ev
libkaddressbookmergelibprivate.so.6:_ZN16KABMergeContacts35MergeContactSelectInformationWidgetD2Ev
libkaddressbookmergelibprivate.so.6:_ZN16KABMergeContacts38MergeContactSelectInformationTabWidget11qt_metacallEN11QMetaObject4CallEiPPv
libkaddressbookmergelibprivate.so.6:_ZN16KABMergeContacts38MergeContactSelectInformationTabWidget11qt_metacastEPKc
libkaddressbookmergelibprivate.so.6:_ZN16KABMergeContacts38MergeContactSelectInformationTabWidget12addNewWidgetERKNS_19MergeConflictResultERKN7Akonadi10CollectionE
libkaddressbookmergelibprivate.so.6:_ZN16KABMergeContacts38MergeContactSelectInformationTabWidget15updateTabWidgetEv
libkaddressbookmergelibprivate.so.6:_ZN16KABMergeContacts38MergeContactSelectInformationTabWidget16staticMetaObjectE
libkaddressbookmergelibprivate.so.6:_ZN16KABMergeContacts38MergeContactSelectInformationTabWidget35setRequiresSelectInformationWidgetsERK5QListINS_19MergeConflictResultEERKN7Akonadi10CollectionE
libkaddressbookmergelibprivate.so.6:_ZN16KABMergeContacts38MergeContactSelectInformationTabWidgetC1EP7QWidget
libkaddressbookmergelibprivate.so.6:_ZN16KABMergeContacts38MergeContactSelectInformationTabWidgetC2EP7QWidget
libkaddressbookmergelibprivate.so.6:_ZN16KABMergeContacts38MergeContactSelectInformationTabWidgetD0Ev
libkaddressbookmergelibprivate.so.6:_ZN16KABMergeContacts38MergeContactSelectInformationTabWidgetD1Ev
libkaddressbookmergelibprivate.so.6:_ZN16KABMergeContacts38MergeContactSelectInformationTabWidgetD2Ev
libkaddressbookmergelibprivate.so.6:_ZN16KABMergeContacts39MergeContactSelectInformationScrollArea11qt_metacallEN11QMetaObject4CallEiPPv
libkaddressbookmergelibprivate.so.6:_ZN16KABMergeContacts39MergeContactSelectInformationScrollArea11qt_metacastEPKc
libkaddressbookmergelibprivate.so.6:_ZN16KABMergeContacts39MergeContactSelectInformationScrollArea11setContactsE6QFlagsINS_13MergeContacts19ConflictInformationEERK5QListIN7Akonadi4ItemEERKNS6_10CollectionE
libkaddressbookmergelibprivate.so.6:_ZN16KABMergeContacts39MergeContactSelectInformationScrollArea12mergeContactERKN9KContacts9AddresseeE
libkaddressbookmergelibprivate.so.6:_ZN16KABMergeContacts39MergeContactSelectInformationScrollArea13slotMergeDoneERKN7Akonadi4ItemE
libkaddressbookmergelibprivate.so.6:_ZN16KABMergeContacts39MergeContactSelectInformationScrollArea16staticMetaObjectE
libkaddressbookmergelibprivate.so.6:_ZN16KABMergeContacts39MergeContactSelectInformationScrollArea17slotMergeContactsEv
libkaddressbookmergelibprivate.so.6:_ZN16KABMergeContacts39MergeContactSelectInformationScrollAreaC1EP7QWidget
libkaddressbookmergelibprivate.so.6:_ZN16KABMergeContacts39MergeContactSelectInformationScrollAreaC2EP7QWidget
libkaddressbookmergelibprivate.so.6:_ZN16KABMergeContacts39MergeContactSelectInformationScrollAreaD0Ev
libkaddressbookmergelibprivate.so.6:_ZN16KABMergeContacts39MergeContactSelectInformationScrollAreaD1Ev
libkaddressbookmergelibprivate.so.6:_ZN16KABMergeContacts39MergeContactSelectInformationScrollAreaD2Ev
libkaddressbookmergelibprivate.so.6:_ZN16KABMergeContacts43SearchAndMergeContactDuplicateContactDialog10readConfigEv
libkaddressbookmergelibprivate.so.6:_ZN16KABMergeContacts43SearchAndMergeContactDuplicateContactDialog11qt_metacallEN11QMetaObject4CallEiPPv
libkaddressbookmergelibprivate.so.6:_ZN16KABMergeContacts43SearchAndMergeContactDuplicateContactDialog11qt_metacastEPKc
libkaddressbookmergelibprivate.so.6:_ZN16KABMergeContacts43SearchAndMergeContactDuplicateContactDialog11writeConfigEv
libkaddressbookmergelibprivate.so.6:_ZN16KABMergeContacts43SearchAndMergeContactDuplicateContactDialog13slotMergeDoneEv
libkaddressbookmergelibprivate.so.6:_ZN16KABMergeContacts43SearchAndMergeContactDuplicateContactDialog16staticMetaObjectE
libkaddressbookmergelibprivate.so.6:_ZN16KABMergeContacts43SearchAndMergeContactDuplicateContactDialog17slotContactMergedERKN7Akonadi4ItemE
libkaddressbookmergelibprivate.so.6:_ZN16KABMergeContacts43SearchAndMergeContactDuplicateContactDialog18slotDuplicateFoundERK5QListIS1_IN7Akonadi4ItemEEE
libkaddressbookmergelibprivate.so.6:_ZN16KABMergeContacts43SearchAndMergeContactDuplicateContactDialog26slotCustomizeMergeContactsERK5QListINS_19MergeConflictResultEERKN7Akonadi10CollectionE
libkaddressbookmergelibprivate.so.6:_ZN16KABMergeContacts43SearchAndMergeContactDuplicateContactDialog32searchPotentialDuplicateContactsERK5QListIN7Akonadi4ItemEE
libkaddressbookmergelibprivate.so.6:_ZN16KABMergeContacts43SearchAndMergeContactDuplicateContactDialogC1EP7QWidget
libkaddressbookmergelibprivate.so.6:_ZN16KABMergeContacts43SearchAndMergeContactDuplicateContactDialogC2EP7QWidget
libkaddressbookmergelibprivate.so.6:_ZN16KABMergeContacts43SearchAndMergeContactDuplicateContactDialogD0Ev
libkaddressbookmergelibprivate.so.6:_ZN16KABMergeContacts43SearchAndMergeContactDuplicateContactDialogD1Ev
libkaddressbookmergelibprivate.so.6:_ZN16KABMergeContacts43SearchAndMergeContactDuplicateContactDialogD2Ev
libkaddressbookmergelibprivate.so.6:_ZNK16KABMergeContacts18MergeContactWidget10metaObjectEv
libkaddressbookmergelibprivate.so.6:_ZNK16KABMergeContacts18MergeContactWidget11currentItemEv
libkaddressbookmergelibprivate.so.6:_ZNK16KABMergeContacts18MergeContactWidget20listSelectedContactsEv
libkaddressbookmergelibprivate.so.6:_ZNK16KABMergeContacts19MergeContactsDialog10metaObjectEv
libkaddressbookmergelibprivate.so.6:_ZNK16KABMergeContacts25ResultDuplicateTreeWidget10metaObjectEv
libkaddressbookmergelibprivate.so.6:_ZNK16KABMergeContacts25ResultDuplicateTreeWidget23selectedContactsToMergeEv
libkaddressbookmergelibprivate.so.6:_ZNK16KABMergeContacts27SearchDuplicateResultWidget10metaObjectEv
libkaddressbookmergelibprivate.so.6:_ZNK16KABMergeContacts28MergeContactSelectListWidget10metaObjectEv
libkaddressbookmergelibprivate.so.6:_ZNK16KABMergeContacts28MergeContactSelectListWidget12conflictTypeEv
libkaddressbookmergelibprivate.so.6:_ZNK16KABMergeContacts28MergeContactSelectListWidget15selectedContactEv
libkaddressbookmergelibprivate.so.6:_ZNK16KABMergeContacts28MergeContactSelectListWidget18verifySelectedInfoEv
libkaddressbookmergelibprivate.so.6:_ZNK16KABMergeContacts29ResultDuplicateTreeWidgetItem4itemEv
libkaddressbookmergelibprivate.so.6:_ZNK16KABMergeContacts34MergeContactLoseInformationWarning10metaObjectEv
libkaddressbookmergelibprivate.so.6:_ZNK16KABMergeContacts35MergeContactSelectInformationWidget10metaObjectEv
libkaddressbookmergelibprivate.so.6:_ZNK16KABMergeContacts35MergeContactSelectInformationWidget18verifySelectedInfoEv
libkaddressbookmergelibprivate.so.6:_ZNK16KABMergeContacts38MergeContactSelectInformationTabWidget10metaObjectEv
libkaddressbookmergelibprivate.so.6:_ZNK16KABMergeContacts38MergeContactSelectInformationTabWidget13tabBarVisibleEv
libkaddressbookmergelibprivate.so.6:_ZNK16KABMergeContacts39MergeContactSelectInformationScrollArea10metaObjectEv
libkaddressbookmergelibprivate.so.6:_ZNK16KABMergeContacts43SearchAndMergeContactDuplicateContactDialog10metaObjectEv
libkaddressbookmergelibprivate.so.6:_ZThn16_N16KABMergeContacts18MergeContactWidgetD0Ev
libkaddressbookmergelibprivate.so.6:_ZThn16_N16KABMergeContacts18MergeContactWidgetD1Ev
libkaddressbookmergelibprivate.so.6:_ZThn16_N16KABMergeContacts19MergeContactsDialogD0Ev
libkaddressbookmergelibprivate.so.6:_ZThn16_N16KABMergeContacts19MergeContactsDialogD1Ev
libkaddressbookmergelibprivate.so.6:_ZThn16_N16KABMergeContacts25ResultDuplicateTreeWidgetD0Ev
libkaddressbookmergelibprivate.so.6:_ZThn16_N16KABMergeContacts25ResultDuplicateTreeWidgetD1Ev
libkaddressbookmergelibprivate.so.6:_ZThn16_N16KABMergeContacts27SearchDuplicateResultWidgetD0Ev
libkaddressbookmergelibprivate.so.6:_ZThn16_N16KABMergeContacts27SearchDuplicateResultWidgetD1Ev
libkaddressbookmergelibprivate.so.6:_ZThn16_N16KABMergeContacts28MergeContactSelectListWidgetD0Ev
libkaddressbookmergelibprivate.so.6:_ZThn16_N16KABMergeContacts28MergeContactSelectListWidgetD1Ev
libkaddressbookmergelibprivate.so.6:_ZThn16_N16KABMergeContacts34MergeContactLoseInformationWarningD0Ev
libkaddressbookmergelibprivate.so.6:_ZThn16_N16KABMergeContacts34MergeContactLoseInformationWarningD1Ev
libkaddressbookmergelibprivate.so.6:_ZThn16_N16KABMergeContacts35MergeContactSelectInformationWidgetD0Ev
libkaddressbookmergelibprivate.so.6:_ZThn16_N16KABMergeContacts35MergeContactSelectInformationWidgetD1Ev
libkaddressbookmergelibprivate.so.6:_ZThn16_N16KABMergeContacts38MergeContactSelectInformationTabWidgetD0Ev
libkaddressbookmergelibprivate.so.6:_ZThn16_N16KABMergeContacts38MergeContactSelectInformationTabWidgetD1Ev
libkaddressbookmergelibprivate.so.6:_ZThn16_N16KABMergeContacts39MergeContactSelectInformationScrollAreaD0Ev
libkaddressbookmergelibprivate.so.6:_ZThn16_N16KABMergeContacts39MergeContactSelectInformationScrollAreaD1Ev
libkaddressbookmergelibprivate.so.6:_ZThn16_N16KABMergeContacts43SearchAndMergeContactDuplicateContactDialogD0Ev
libkaddressbookmergelibprivate.so.6:_ZThn16_N16KABMergeContacts43SearchAndMergeContactDuplicateContactDialogD1Ev
libkmailconfirmbeforedeleting.so.6:_ZN25ConfirmBeforeDeletingRule10setPatternERK7QString
libkmailconfirmbeforedeleting.so.6:_ZN25ConfirmBeforeDeletingRule11setRuleTypeENS_8RuleTypeE
libkmailconfirmbeforedeleting.so.6:_ZN25ConfirmBeforeDeletingRule16ruleTypeToStringENS_8RuleTypeE
libkmailconfirmbeforedeleting.so.6:_ZN25ConfirmBeforeDeletingRule16staticMetaObjectE
libkmailconfirmbeforedeleting.so.6:_ZN25ConfirmBeforeDeletingRule16stringToRuleTypeERK7QString
libkmailconfirmbeforedeleting.so.6:_ZN25ConfirmBeforeDeletingRule4loadERK12KConfigGroup
libkmailconfirmbeforedeleting.so.6:_ZN25ConfirmBeforeDeletingRuleC1Ev
libkmailconfirmbeforedeleting.so.6:_ZN25ConfirmBeforeDeletingRuleC2Ev
libkmailconfirmbeforedeleting.so.6:_ZN25ConfirmBeforeDeletingRuleD1Ev
libkmailconfirmbeforedeleting.so.6:_ZN25ConfirmBeforeDeletingRuleD2Ev
libkmailconfirmbeforedeleting.so.6:_ZN27ConfirmBeforeDeletingDialog10readConfigEv
libkmailconfirmbeforedeleting.so.6:_ZN27ConfirmBeforeDeletingDialog11qt_metacallEN11QMetaObject4CallEiPPv
libkmailconfirmbeforedeleting.so.6:_ZN27ConfirmBeforeDeletingDialog11qt_metacastEPKc
libkmailconfirmbeforedeleting.so.6:_ZN27ConfirmBeforeDeletingDialog11writeConfigEv
libkmailconfirmbeforedeleting.so.6:_ZN27ConfirmBeforeDeletingDialog16staticMetaObjectE
libkmailconfirmbeforedeleting.so.6:_ZN27ConfirmBeforeDeletingDialog8slotSaveEv
libkmailconfirmbeforedeleting.so.6:_ZN27ConfirmBeforeDeletingDialogC1EP7QWidget
libkmailconfirmbeforedeleting.so.6:_ZN27ConfirmBeforeDeletingDialogC2EP7QWidget
libkmailconfirmbeforedeleting.so.6:_ZN27ConfirmBeforeDeletingDialogD0Ev
libkmailconfirmbeforedeleting.so.6:_ZN27ConfirmBeforeDeletingDialogD1Ev
libkmailconfirmbeforedeleting.so.6:_ZN27ConfirmBeforeDeletingDialogD2Ev
libkmailconfirmbeforedeleting.so.6:_ZN28ConfirmBeforeDeletingManager11qt_metacallEN11QMetaObject4CallEiPPv
libkmailconfirmbeforedeleting.so.6:_ZN28ConfirmBeforeDeletingManager11qt_metacastEPKc
libkmailconfirmbeforedeleting.so.6:_ZN28ConfirmBeforeDeletingManager16staticMetaObjectE
libkmailconfirmbeforedeleting.so.6:_ZN28ConfirmBeforeDeletingManager4selfEv
libkmailconfirmbeforedeleting.so.6:_ZN28ConfirmBeforeDeletingManager8setRulesERK5QListI25ConfirmBeforeDeletingRuleE
libkmailconfirmbeforedeleting.so.6:_ZN28ConfirmBeforeDeletingManager9loadRulesEv
libkmailconfirmbeforedeleting.so.6:_ZN28ConfirmBeforeDeletingManager9saveRulesEv
libkmailconfirmbeforedeleting.so.6:_ZN28ConfirmBeforeDeletingManagerC1EP7QObject
libkmailconfirmbeforedeleting.so.6:_ZN28ConfirmBeforeDeletingManagerC2EP7QObject
libkmailconfirmbeforedeleting.so.6:_ZN28ConfirmBeforeDeletingManagerD0Ev
libkmailconfirmbeforedeleting.so.6:_ZN28ConfirmBeforeDeletingManagerD1Ev
libkmailconfirmbeforedeleting.so.6:_ZN28ConfirmBeforeDeletingManagerD2Ev
libkmailconfirmbeforedeleting.so.6:_ZN37ConfirmBeforeDeletingMessageBoxDialog11qt_metacallEN11QMetaObject4CallEiPPv
libkmailconfirmbeforedeleting.so.6:_ZN37ConfirmBeforeDeletingMessageBoxDialog11qt_metacastEPKc
libkmailconfirmbeforedeleting.so.6:_ZN37ConfirmBeforeDeletingMessageBoxDialog16staticMetaObjectE
libkmailconfirmbeforedeleting.so.6:_ZN37ConfirmBeforeDeletingMessageBoxDialog7setInfoERK7QString
libkmailconfirmbeforedeleting.so.6:_ZN37ConfirmBeforeDeletingMessageBoxDialogC1EP7QWidget
libkmailconfirmbeforedeleting.so.6:_ZN37ConfirmBeforeDeletingMessageBoxDialogC2EP7QWidget
libkmailconfirmbeforedeleting.so.6:_ZN37ConfirmBeforeDeletingMessageBoxDialogD0Ev
libkmailconfirmbeforedeleting.so.6:_ZN37ConfirmBeforeDeletingMessageBoxDialogD1Ev
libkmailconfirmbeforedeleting.so.6:_ZN37ConfirmBeforeDeletingMessageBoxDialogD2Ev
libkmailconfirmbeforedeleting.so.6:_ZNK25ConfirmBeforeDeletingRule21deletingNeedToConfirmERKN7Akonadi4ItemER7QString
libkmailconfirmbeforedeleting.so.6:_ZNK25ConfirmBeforeDeletingRule26generateConfirmMessageInfoERK14QSharedPointerIN5KMime7MessageEER7QString
libkmailconfirmbeforedeleting.so.6:_ZNK25ConfirmBeforeDeletingRule36generateConfirmMessageInfoFromStatusERK14QSharedPointerIN5KMime7MessageEER7QStringRKS6_
libkmailconfirmbeforedeleting.so.6:_ZNK25ConfirmBeforeDeletingRule4saveER12KConfigGroup
libkmailconfirmbeforedeleting.so.6:_ZNK25ConfirmBeforeDeletingRule7isValidEv
libkmailconfirmbeforedeleting.so.6:_ZNK25ConfirmBeforeDeletingRule7patternEv
libkmailconfirmbeforedeleting.so.6:_ZNK25ConfirmBeforeDeletingRule8ruleTypeEv
libkmailconfirmbeforedeleting.so.6:_ZNK25ConfirmBeforeDeletingRuleeqERKS_
libkmailconfirmbeforedeleting.so.6:_ZNK27ConfirmBeforeDeletingDialog10metaObjectEv
libkmailconfirmbeforedeleting.so.6:_ZNK28ConfirmBeforeDeletingManager10metaObjectEv
libkmailconfirmbeforedeleting.so.6:_ZNK28ConfirmBeforeDeletingManager10ruleGroupsERK28QExplicitlySharedDataPointerI13KSharedConfigE
libkmailconfirmbeforedeleting.so.6:_ZNK28ConfirmBeforeDeletingManager21defaultConfigFileNameEv
libkmailconfirmbeforedeleting.so.6:_ZNK28ConfirmBeforeDeletingManager21deletingNeedToConfirmERKN7Akonadi4ItemER7QStringR25ConfirmBeforeDeletingRule
libkmailconfirmbeforedeleting.so.6:_ZNK28ConfirmBeforeDeletingManager5rulesEv
libkmailconfirmbeforedeleting.so.6:_ZNK37ConfirmBeforeDeletingMessageBoxDialog10metaObjectEv
libkmailconfirmbeforedeleting.so.6:_ZNK37ConfirmBeforeDeletingMessageBoxDialog13useSameResultEv
libkmailconfirmbeforedeleting.so.6:_ZThn16_N27ConfirmBeforeDeletingDialogD0Ev
libkmailconfirmbeforedeleting.so.6:_ZThn16_N27ConfirmBeforeDeletingDialogD1Ev
libkmailconfirmbeforedeleting.so.6:_ZThn16_N37ConfirmBeforeDeletingMessageBoxDialogD0Ev
libkmailconfirmbeforedeleting.so.6:_ZThn16_N37ConfirmBeforeDeletingMessageBoxDialogD1Ev
libkmailconfirmbeforedeleting.so.6:_Zls6QDebugRK25ConfirmBeforeDeletingRule
libkmailmarkdown.so.6:_ZN12MarkdownUtil10imagePathsERK7QString
libkmailmarkdown.so.6:_ZN17MarkdownConverter11qt_metacallEN11QMetaObject4CallEiPPv
libkmailmarkdown.so.6:_ZN17MarkdownConverter11qt_metacastEPKc
libkmailmarkdown.so.6:_ZN17MarkdownConverter16staticMetaObjectE
libkmailmarkdown.so.6:_ZN17MarkdownConverter21convertTextToMarkdownERK7QString
libkmailmarkdown.so.6:_ZN17MarkdownConverter22setEnableEmbeddedLabelEb
libkmailmarkdown.so.6:_ZN17MarkdownConverter29setEnableExtraDefinitionListsEb
libkmailmarkdown.so.6:_ZN17MarkdownConverter6failedERK7QString
libkmailmarkdown.so.6:_ZN17MarkdownConverterC1EP7QObject
libkmailmarkdown.so.6:_ZN17MarkdownConverterC2EP7QObject
libkmailmarkdown.so.6:_ZN17MarkdownConverterD0Ev
libkmailmarkdown.so.6:_ZN17MarkdownConverterD1Ev
libkmailmarkdown.so.6:_ZN17MarkdownConverterD2Ev
libkmailmarkdown.so.6:_ZN21MarkdownPreviewDialog10readConfigEv
libkmailmarkdown.so.6:_ZN21MarkdownPreviewDialog11qt_metacallEN11QMetaObject4CallEiPPv
libkmailmarkdown.so.6:_ZN21MarkdownPreviewDialog11qt_metacastEPKc
libkmailmarkdown.so.6:_ZN21MarkdownPreviewDialog11writeConfigEv
libkmailmarkdown.so.6:_ZN21MarkdownPreviewDialog16staticMetaObjectE
libkmailmarkdown.so.6:_ZN21MarkdownPreviewDialog20setConverterSettingsEbb
libkmailmarkdown.so.6:_ZN21MarkdownPreviewDialog7setTextERK7QString
libkmailmarkdown.so.6:_ZN21MarkdownPreviewDialogC1EP7QWidget
libkmailmarkdown.so.6:_ZN21MarkdownPreviewDialogC2EP7QWidget
libkmailmarkdown.so.6:_ZN21MarkdownPreviewDialogD0Ev
libkmailmarkdown.so.6:_ZN21MarkdownPreviewDialogD1Ev
libkmailmarkdown.so.6:_ZN21MarkdownPreviewDialogD2Ev
libkmailmarkdown.so.6:_ZN23MarkdownConfigureDialog11qt_metacallEN11QMetaObject4CallEiPPv
libkmailmarkdown.so.6:_ZN23MarkdownConfigureDialog11qt_metacastEPKc
libkmailmarkdown.so.6:_ZN23MarkdownConfigureDialog12createLayoutEv
libkmailmarkdown.so.6:_ZN23MarkdownConfigureDialog16staticMetaObjectE
libkmailmarkdown.so.6:_ZN23MarkdownConfigureDialog4helpEv
libkmailmarkdown.so.6:_ZN23MarkdownConfigureDialog4loadEv
libkmailmarkdown.so.6:_ZN23MarkdownConfigureDialog4saveEv
libkmailmarkdown.so.6:_ZN23MarkdownConfigureDialog5resetEv
libkmailmarkdown.so.6:_ZN23MarkdownConfigureDialogC1EP7QWidget
libkmailmarkdown.so.6:_ZN23MarkdownConfigureDialogC2EP7QWidget
libkmailmarkdown.so.6:_ZN23MarkdownConfigureDialogD0Ev
libkmailmarkdown.so.6:_ZN23MarkdownConfigureDialogD1Ev
libkmailmarkdown.so.6:_ZN23MarkdownConfigureDialogD2Ev
libkmailmarkdown.so.6:_ZN24MarkdownCreateLinkDialog10readConfigEv
libkmailmarkdown.so.6:_ZN24MarkdownCreateLinkDialog11qt_metacallEN11QMetaObject4CallEiPPv
libkmailmarkdown.so.6:_ZN24MarkdownCreateLinkDialog11qt_metacastEPKc
libkmailmarkdown.so.6:_ZN24MarkdownCreateLinkDialog11writeConfigEv
libkmailmarkdown.so.6:_ZN24MarkdownCreateLinkDialog16staticMetaObjectE
libkmailmarkdown.so.6:_ZN24MarkdownCreateLinkDialog19slotEnabledOkButtonEb
libkmailmarkdown.so.6:_ZN24MarkdownCreateLinkDialogC1EP7QWidget
libkmailmarkdown.so.6:_ZN24MarkdownCreateLinkDialogC2EP7QWidget
libkmailmarkdown.so.6:_ZN24MarkdownCreateLinkDialogD0Ev
libkmailmarkdown.so.6:_ZN24MarkdownCreateLinkDialogD1Ev
libkmailmarkdown.so.6:_ZN24MarkdownCreateLinkDialogD2Ev
libkmailmarkdown.so.6:_ZN25MarkdownCreateImageDialog10readConfigEv
libkmailmarkdown.so.6:_ZN25MarkdownCreateImageDialog11qt_metacallEN11QMetaObject4CallEiPPv
libkmailmarkdown.so.6:_ZN25MarkdownCreateImageDialog11qt_metacastEPKc
libkmailmarkdown.so.6:_ZN25MarkdownCreateImageDialog11writeConfigEv
libkmailmarkdown.so.6:_ZN25MarkdownCreateImageDialog16staticMetaObjectE
libkmailmarkdown.so.6:_ZN25MarkdownCreateImageDialog19slotEnabledOkButtonEb
libkmailmarkdown.so.6:_ZN25MarkdownCreateImageDialogC1EP7QWidget
libkmailmarkdown.so.6:_ZN25MarkdownCreateImageDialogC2EP7QWidget
libkmailmarkdown.so.6:_ZN25MarkdownCreateImageDialogD0Ev
libkmailmarkdown.so.6:_ZN25MarkdownCreateImageDialogD1Ev
libkmailmarkdown.so.6:_ZN25MarkdownCreateImageDialogD2Ev
libkmailmarkdown.so.6:_ZNK17MarkdownConverter10metaObjectEv
libkmailmarkdown.so.6:_ZNK17MarkdownConverter19enableEmbeddedLabelEv
libkmailmarkdown.so.6:_ZNK17MarkdownConverter26enableExtraDefinitionListsEv
libkmailmarkdown.so.6:_ZNK21MarkdownPreviewDialog10metaObjectEv
libkmailmarkdown.so.6:_ZNK23MarkdownConfigureDialog10metaObjectEv
libkmailmarkdown.so.6:_ZNK24MarkdownCreateLinkDialog10metaObjectEv
libkmailmarkdown.so.6:_ZNK24MarkdownCreateLinkDialog7linkStrEv
libkmailmarkdown.so.6:_ZNK25MarkdownCreateImageDialog10metaObjectEv
libkmailmarkdown.so.6:_ZNK25MarkdownCreateImageDialog7linkStrEv
libkmailmarkdown.so.6:_ZThn16_N21MarkdownPreviewDialogD0Ev
libkmailmarkdown.so.6:_ZThn16_N21MarkdownPreviewDialogD1Ev
libkmailmarkdown.so.6:_ZThn16_N23MarkdownConfigureDialogD0Ev
libkmailmarkdown.so.6:_ZThn16_N23MarkdownConfigureDialogD1Ev
libkmailmarkdown.so.6:_ZThn16_N24MarkdownCreateLinkDialogD0Ev
libkmailmarkdown.so.6:_ZThn16_N24MarkdownCreateLinkDialogD1Ev
libkmailmarkdown.so.6:_ZThn16_N25MarkdownCreateImageDialogD0Ev
libkmailmarkdown.so.6:_ZThn16_N25MarkdownCreateImageDialogD1Ev
libkmailmarkdown.so.6:__bss_start
libkmailmarkdown.so.6:_edata
libkmailmarkdown.so.6:_end
libkmailquicktextpluginprivate.so.6:_ZN13QuickTextMenu10insertTextERK7QString
libkmailquicktextpluginprivate.so.6:_ZN13QuickTextMenu11qt_metacallEN11QMetaObject4CallEiPPv
libkmailquicktextpluginprivate.so.6:_ZN13QuickTextMenu11qt_metacastEPKc
libkmailquicktextpluginprivate.so.6:_ZN13QuickTextMenu14initializeMenuEv
libkmailquicktextpluginprivate.so.6:_ZN13QuickTextMenu14insertVariableEN15MessageComposer27ConvertSnippetVariablesUtil12VariableTypeE
libkmailquicktextpluginprivate.so.6:_ZN13QuickTextMenu16staticMetaObjectE
libkmailquicktextpluginprivate.so.6:_ZN13QuickTextMenu26setPluginComposerInterfaceEPN15MessageComposer23PluginComposerInterfaceE
libkmailquicktextpluginprivate.so.6:_ZN13QuickTextMenuC1EP7QWidgetP7QObject
libkmailquicktextpluginprivate.so.6:_ZN13QuickTextMenuC2EP7QWidgetP7QObject
libkmailquicktextpluginprivate.so.6:_ZN13QuickTextMenuD0Ev
libkmailquicktextpluginprivate.so.6:_ZN13QuickTextMenuD1Ev
libkmailquicktextpluginprivate.so.6:_ZN13QuickTextMenuD2Ev
libkmailquicktextpluginprivate.so.6:_ZN15QuickTextWidget10addSnippetEv
libkmailquicktextpluginprivate.so.6:_ZN15QuickTextWidget11editSnippetEv
libkmailquicktextpluginprivate.so.6:_ZN15QuickTextWidget11qt_metacallEN11QMetaObject4CallEiPPv
libkmailquicktextpluginprivate.so.6:_ZN15QuickTextWidget11qt_metacastEPKc
libkmailquicktextpluginprivate.so.6:_ZN15QuickTextWidget12saveAddGroupEv
libkmailquicktextpluginprivate.so.6:_ZN15QuickTextWidget13saveEditGroupEv
libkmailquicktextpluginprivate.so.6:_ZN15QuickTextWidget14saveAddSnippetEv
libkmailquicktextpluginprivate.so.6:_ZN15QuickTextWidget14saveModelIndexERK11QModelIndex
libkmailquicktextpluginprivate.so.6:_ZN15QuickTextWidget15addSnippetGroupEv
libkmailquicktextpluginprivate.so.6:_ZN15QuickTextWidget15exportQuickTextEv
libkmailquicktextpluginprivate.so.6:_ZN15QuickTextWidget15importQuickTextEv
libkmailquicktextpluginprivate.so.6:_ZN15QuickTextWidget15saveEditSnippetEv
libkmailquicktextpluginprivate.so.6:_ZN15QuickTextWidget16editSnippetGroupEv
libkmailquicktextpluginprivate.so.6:_ZN15QuickTextWidget16staticMetaObjectE
libkmailquicktextpluginprivate.so.6:_ZN15QuickTextWidget4saveEv
libkmailquicktextpluginprivate.so.6:_ZN15QuickTextWidgetC1EP7QWidget
libkmailquicktextpluginprivate.so.6:_ZN15QuickTextWidgetC2EP7QWidget
libkmailquicktextpluginprivate.so.6:_ZN15QuickTextWidgetD0Ev
libkmailquicktextpluginprivate.so.6:_ZN15QuickTextWidgetD1Ev
libkmailquicktextpluginprivate.so.6:_ZN15QuickTextWidgetD2Ev
libkmailquicktextpluginprivate.so.6:_ZN19QuicktextTreeWidget10addSnippetEv
libkmailquicktextpluginprivate.so.6:_ZN19QuicktextTreeWidget11editSnippetEv
libkmailquicktextpluginprivate.so.6:_ZN19QuicktextTreeWidget11qt_metacallEN11QMetaObject4CallEiPPv
libkmailquicktextpluginprivate.so.6:_ZN19QuicktextTreeWidget11qt_metacastEPKc
libkmailquicktextpluginprivate.so.6:_ZN19QuicktextTreeWidget13deleteSnippetEv
libkmailquicktextpluginprivate.so.6:_ZN19QuicktextTreeWidget15addSnippetGroupEv
libkmailquicktextpluginprivate.so.6:_ZN19QuicktextTreeWidget16contextMenuEventEP17QContextMenuEvent
libkmailquicktextpluginprivate.so.6:_ZN19QuicktextTreeWidget16editSnippetGroupEv
libkmailquicktextpluginprivate.so.6:_ZN19QuicktextTreeWidget16staticMetaObjectE
libkmailquicktextpluginprivate.so.6:_ZN19QuicktextTreeWidget17insertSnippetTextERK7QString
libkmailquicktextpluginprivate.so.6:_ZN19QuicktextTreeWidget18deleteSnippetGroupEv
libkmailquicktextpluginprivate.so.6:_ZN19QuicktextTreeWidget19selectionWasChangedEv
libkmailquicktextpluginprivate.so.6:_ZN19QuicktextTreeWidget9dropEventEP10QDropEvent
libkmailquicktextpluginprivate.so.6:_ZN19QuicktextTreeWidgetC1EP16QuicktextManagerP7QWidget
libkmailquicktextpluginprivate.so.6:_ZN19QuicktextTreeWidgetC2EP16QuicktextManagerP7QWidget
libkmailquicktextpluginprivate.so.6:_ZN19QuicktextTreeWidgetD0Ev
libkmailquicktextpluginprivate.so.6:_ZN19QuicktextTreeWidgetD1Ev
libkmailquicktextpluginprivate.so.6:_ZN19QuicktextTreeWidgetD2Ev
libkmailquicktextpluginprivate.so.6:_ZN24QuickTextConfigureDialog10closeEventEP11QCloseEvent
libkmailquicktextpluginprivate.so.6:_ZN24QuickTextConfigureDialog10readConfigEv
libkmailquicktextpluginprivate.so.6:_ZN24QuickTextConfigureDialog10slotExportEv
libkmailquicktextpluginprivate.so.6:_ZN24QuickTextConfigureDialog10slotImportEv
libkmailquicktextpluginprivate.so.6:_ZN24QuickTextConfigureDialog11qt_metacallEN11QMetaObject4CallEiPPv
libkmailquicktextpluginprivate.so.6:_ZN24QuickTextConfigureDialog11qt_metacastEPKc
libkmailquicktextpluginprivate.so.6:_ZN24QuickTextConfigureDialog11writeConfigEv
libkmailquicktextpluginprivate.so.6:_ZN24QuickTextConfigureDialog12slotAcceptedEv
libkmailquicktextpluginprivate.so.6:_ZN24QuickTextConfigureDialog16staticMetaObjectE
libkmailquicktextpluginprivate.so.6:_ZN24QuickTextConfigureDialogC1EP7QWidget
libkmailquicktextpluginprivate.so.6:_ZN24QuickTextConfigureDialogC2EP7QWidget
libkmailquicktextpluginprivate.so.6:_ZN24QuickTextConfigureDialogD0Ev
libkmailquicktextpluginprivate.so.6:_ZN24QuickTextConfigureDialogD1Ev
libkmailquicktextpluginprivate.so.6:_ZN24QuickTextConfigureDialogD2Ev
libkmailquicktextpluginprivate.so.6:_ZN24QuickTextConfigureWidget11qt_metacallEN11QMetaObject4CallEiPPv
libkmailquicktextpluginprivate.so.6:_ZN24QuickTextConfigureWidget11qt_metacastEPKc
libkmailquicktextpluginprivate.so.6:_ZN24QuickTextConfigureWidget15exportQuickTextEv
libkmailquicktextpluginprivate.so.6:_ZN24QuickTextConfigureWidget15importQuickTextEv
libkmailquicktextpluginprivate.so.6:_ZN24QuickTextConfigureWidget16staticMetaObjectE
libkmailquicktextpluginprivate.so.6:_ZN24QuickTextConfigureWidget4saveEv
libkmailquicktextpluginprivate.so.6:_ZN24QuickTextConfigureWidgetC1EP7QWidget
libkmailquicktextpluginprivate.so.6:_ZN24QuickTextConfigureWidgetC2EP7QWidget
libkmailquicktextpluginprivate.so.6:_ZN24QuickTextConfigureWidgetD0Ev
libkmailquicktextpluginprivate.so.6:_ZN24QuickTextConfigureWidgetD1Ev
libkmailquicktextpluginprivate.so.6:_ZN24QuickTextConfigureWidgetD2Ev
libkmailquicktextpluginprivate.so.6:_ZNK13QuickTextMenu10metaObjectEv
libkmailquicktextpluginprivate.so.6:_ZNK13QuickTextMenu4menuEv
libkmailquicktextpluginprivate.so.6:_ZNK15QuickTextWidget10metaObjectEv
libkmailquicktextpluginprivate.so.6:_ZNK19QuicktextTreeWidget10metaObjectEv
libkmailquicktextpluginprivate.so.6:_ZNK19QuicktextTreeWidget15snippetsManagerEv
libkmailquicktextpluginprivate.so.6:_ZNK24QuickTextConfigureDialog10metaObjectEv
libkmailquicktextpluginprivate.so.6:_ZNK24QuickTextConfigureWidget10metaObjectEv
libkmailquicktextpluginprivate.so.6:_ZThn16_N15QuickTextWidgetD0Ev
libkmailquicktextpluginprivate.so.6:_ZThn16_N15QuickTextWidgetD1Ev
libkmailquicktextpluginprivate.so.6:_ZThn16_N19QuicktextTreeWidgetD0Ev
libkmailquicktextpluginprivate.so.6:_ZThn16_N19QuicktextTreeWidgetD1Ev
libkmailquicktextpluginprivate.so.6:_ZThn16_N24QuickTextConfigureDialogD0Ev
libkmailquicktextpluginprivate.so.6:_ZThn16_N24QuickTextConfigureDialogD1Ev
libkmailquicktextpluginprivate.so.6:_ZThn16_N24QuickTextConfigureWidgetD0Ev
libkmailquicktextpluginprivate.so.6:_ZThn16_N24QuickTextConfigureWidgetD1Ev
libkmailquicktextpluginprivate.so.6:__bss_start
libkmailquicktextpluginprivate.so.6:_edata
libkmailquicktextpluginprivate.so.6:_end
libopenurlwithconfigure.so.6:_ZN26OpenUrlWithConfigureDialog10readConfigEv
libopenurlwithconfigure.so.6:_ZN26OpenUrlWithConfigureDialog11qt_metacallEN11QMetaObject4CallEiPPv
libopenurlwithconfigure.so.6:_ZN26OpenUrlWithConfigureDialog11qt_metacastEPKc
libopenurlwithconfigure.so.6:_ZN26OpenUrlWithConfigureDialog11writeConfigEv
libopenurlwithconfigure.so.6:_ZN26OpenUrlWithConfigureDialog12slotAcceptedEv
libopenurlwithconfigure.so.6:_ZN26OpenUrlWithConfigureDialog16staticMetaObjectE
libopenurlwithconfigure.so.6:_ZN26OpenUrlWithConfigureDialogC1EP7QWidget
libopenurlwithconfigure.so.6:_ZN26OpenUrlWithConfigureDialogC2EP7QWidget
libopenurlwithconfigure.so.6:_ZN26OpenUrlWithConfigureDialogD0Ev
libopenurlwithconfigure.so.6:_ZN26OpenUrlWithConfigureDialogD1Ev
libopenurlwithconfigure.so.6:_ZN26OpenUrlWithConfigureDialogD2Ev
libopenurlwithconfigure.so.6:_ZNK26OpenUrlWithConfigureDialog10metaObjectEv
libopenurlwithconfigure.so.6:_ZThn16_N26OpenUrlWithConfigureDialogD0Ev
libopenurlwithconfigure.so.6:_ZThn16_N26OpenUrlWithConfigureDialogD1Ev
libopenurlwithconfigure.so.6:__bss_start
libopenurlwithconfigure.so.6:_edata
libopenurlwithconfigure.so.6:_end
libpimcalendarsplugin.so:qt_plugin_instance
libpimcalendarsplugin.so:qt_plugin_query_metadata_v2
libshorturlpluginprivate.so.6:_ZN20ShortUrlEnginePlugin11qt_metacallEN11QMetaObject4CallEiPPv
libshorturlpluginprivate.so.6:_ZN20ShortUrlEnginePlugin11qt_metacastEPKc
libshorturlpluginprivate.so.6:_ZN20ShortUrlEnginePlugin13setPluginNameERK7QString
libshorturlpluginprivate.so.6:_ZN20ShortUrlEnginePlugin16staticMetaObjectE
libshorturlpluginprivate.so.6:_ZN20ShortUrlEnginePluginC1EP7QObject
libshorturlpluginprivate.so.6:_ZN20ShortUrlEnginePluginC2EP7QObject
libshorturlpluginprivate.so.6:_ZN20ShortUrlEnginePluginD0Ev
libshorturlpluginprivate.so.6:_ZN20ShortUrlEnginePluginD1Ev
libshorturlpluginprivate.so.6:_ZN20ShortUrlEnginePluginD2Ev
libshorturlpluginprivate.so.6:_ZN23ShortUrlEngineInterface11qt_metacallEN11QMetaObject4CallEiPPv
libshorturlpluginprivate.so.6:_ZN23ShortUrlEngineInterface11qt_metacastEPKc
libshorturlpluginprivate.so.6:_ZN23ShortUrlEngineInterface11setShortUrlERK7QString
libshorturlpluginprivate.so.6:_ZN23ShortUrlEngineInterface13setTextCursorERK11QTextCursor
libshorturlpluginprivate.so.6:_ZN23ShortUrlEngineInterface14shortUrlFailedERK7QString
libshorturlpluginprivate.so.6:_ZN23ShortUrlEngineInterface14slotErrorFoundEN13QNetworkReply12NetworkErrorE
libshorturlpluginprivate.so.6:_ZN23ShortUrlEngineInterface16staticMetaObjectE
libshorturlpluginprivate.so.6:_ZN23ShortUrlEngineInterfaceC1EP20ShortUrlEnginePluginP7QObject
libshorturlpluginprivate.so.6:_ZN23ShortUrlEngineInterfaceC2EP20ShortUrlEnginePluginP7QObject
libshorturlpluginprivate.so.6:_ZN23ShortUrlEngineInterfaceD0Ev
libshorturlpluginprivate.so.6:_ZN23ShortUrlEngineInterfaceD1Ev
libshorturlpluginprivate.so.6:_ZN23ShortUrlEngineInterfaceD2Ev
libshorturlpluginprivate.so.6:_ZN27ShortUrlEnginePluginManager11qt_metacallEN11QMetaObject4CallEiPPv
libshorturlpluginprivate.so.6:_ZN27ShortUrlEnginePluginManager11qt_metacastEPKc
libshorturlpluginprivate.so.6:_ZN27ShortUrlEnginePluginManager16staticMetaObjectE
libshorturlpluginprivate.so.6:_ZN27ShortUrlEnginePluginManager4selfEv
libshorturlpluginprivate.so.6:_ZN27ShortUrlEnginePluginManagerC1EP7QObject
libshorturlpluginprivate.so.6:_ZN27ShortUrlEnginePluginManagerC2EP7QObject
libshorturlpluginprivate.so.6:_ZN27ShortUrlEnginePluginManagerD0Ev
libshorturlpluginprivate.so.6:_ZN27ShortUrlEnginePluginManagerD1Ev
libshorturlpluginprivate.so.6:_ZN27ShortUrlEnginePluginManagerD2Ev
libshorturlpluginprivate.so.6:_ZNK20ShortUrlEnginePlugin10metaObjectEv
libshorturlpluginprivate.so.6:_ZNK20ShortUrlEnginePlugin10pluginNameEv
libshorturlpluginprivate.so.6:_ZNK23ShortUrlEngineInterface10metaObjectEv
libshorturlpluginprivate.so.6:_ZNK23ShortUrlEngineInterface10pluginNameEv
libshorturlpluginprivate.so.6:_ZNK27ShortUrlEnginePluginManager10metaObjectEv
libshorturlpluginprivate.so.6:_ZNK27ShortUrlEnginePluginManager11pluginsListEv
lunarphases.so:__bss_start
lunarphases.so:_edata
lunarphases.so:_end
lunarphases.so:qt_plugin_instance
lunarphases.so:qt_plugin_query_metadata_v2
mailtransport_sendplugin.so:qt_plugin_instance
mailtransport_sendplugin.so:qt_plugin_query_metadata_v2
messageviewer_bodypartformatter_application_gnupgwks.so:__bss_start
messageviewer_bodypartformatter_application_gnupgwks.so:_edata
messageviewer_bodypartformatter_application_gnupgwks.so:_end
messageviewer_bodypartformatter_application_gnupgwks.so:qt_plugin_instance
messageviewer_bodypartformatter_application_gnupgwks.so:qt_plugin_query_metadata_v2
messageviewer_bodypartformatter_application_mstnef.so:__bss_start
messageviewer_bodypartformatter_application_mstnef.so:_edata
messageviewer_bodypartformatter_application_mstnef.so:_end
messageviewer_bodypartformatter_application_mstnef.so:qt_plugin_instance
messageviewer_bodypartformatter_application_mstnef.so:qt_plugin_query_metadata_v2
messageviewer_bodypartformatter_pkpass.so:__bss_start
messageviewer_bodypartformatter_pkpass.so:_edata
messageviewer_bodypartformatter_pkpass.so:_end
messageviewer_bodypartformatter_pkpass.so:qt_plugin_instance
messageviewer_bodypartformatter_pkpass.so:qt_plugin_query_metadata_v2
messageviewer_bodypartformatter_semantic.so:__bss_start
messageviewer_bodypartformatter_semantic.so:_edata
messageviewer_bodypartformatter_semantic.so:_end
messageviewer_bodypartformatter_semantic.so:qt_plugin_instance
messageviewer_bodypartformatter_semantic.so:qt_plugin_query_metadata_v2
messageviewer_bodypartformatter_text_calendar.so:__bss_start
messageviewer_bodypartformatter_text_calendar.so:_edata
messageviewer_bodypartformatter_text_calendar.so:_end
messageviewer_bodypartformatter_text_calendar.so:qt_plugin_instance
messageviewer_bodypartformatter_text_calendar.so:qt_plugin_query_metadata_v2
messageviewer_bodypartformatter_text_highlighter.so:__bss_start
messageviewer_bodypartformatter_text_highlighter.so:_edata
messageviewer_bodypartformatter_text_highlighter.so:_end
messageviewer_bodypartformatter_text_highlighter.so:qt_plugin_instance
messageviewer_bodypartformatter_text_highlighter.so:qt_plugin_query_metadata_v2
messageviewer_bodypartformatter_text_markdown.so:__bss_start
messageviewer_bodypartformatter_text_markdown.so:_edata
messageviewer_bodypartformatter_text_markdown.so:_end
messageviewer_bodypartformatter_text_markdown.so:qt_plugin_instance
messageviewer_bodypartformatter_text_markdown.so:qt_plugin_query_metadata_v2
messageviewer_bodypartformatter_text_vcard.so:__bss_start
messageviewer_bodypartformatter_text_vcard.so:_edata
messageviewer_bodypartformatter_text_vcard.so:_end
messageviewer_bodypartformatter_text_vcard.so:qt_plugin_instance
messageviewer_bodypartformatter_text_vcard.so:qt_plugin_query_metadata_v2
messageviewer_briefheaderstyleplugin.so:__bss_start
messageviewer_briefheaderstyleplugin.so:_edata
messageviewer_briefheaderstyleplugin.so:_end
messageviewer_briefheaderstyleplugin.so:qt_plugin_instance
messageviewer_briefheaderstyleplugin.so:qt_plugin_query_metadata_v2
messageviewer_createeventplugin.so:__bss_start
messageviewer_createeventplugin.so:_edata
messageviewer_createeventplugin.so:_end
messageviewer_createeventplugin.so:qt_plugin_instance
messageviewer_createeventplugin.so:qt_plugin_query_metadata_v2
messageviewer_createnoteplugin.so:__bss_start
messageviewer_createnoteplugin.so:_edata
messageviewer_createnoteplugin.so:_end
messageviewer_createnoteplugin.so:qt_plugin_instance
messageviewer_createnoteplugin.so:qt_plugin_query_metadata_v2
messageviewer_createtodoplugin.so:__bss_start
messageviewer_createtodoplugin.so:_edata
messageviewer_createtodoplugin.so:_end
messageviewer_createtodoplugin.so:qt_plugin_instance
messageviewer_createtodoplugin.so:qt_plugin_query_metadata_v2
messageviewer_dkimconfigplugin.so:__bss_start
messageviewer_dkimconfigplugin.so:_edata
messageviewer_dkimconfigplugin.so:_end
messageviewer_dkimconfigplugin.so:qt_plugin_instance
messageviewer_dkimconfigplugin.so:qt_plugin_query_metadata_v2
messageviewer_expandurlplugin.so:__bss_start
messageviewer_expandurlplugin.so:_edata
messageviewer_expandurlplugin.so:_end
messageviewer_expandurlplugin.so:qt_plugin_instance
messageviewer_expandurlplugin.so:qt_plugin_query_metadata_v2
messageviewer_expireaccounttrashfolderconfigplugin.so:__bss_start
messageviewer_expireaccounttrashfolderconfigplugin.so:_edata
messageviewer_expireaccounttrashfolderconfigplugin.so:_end
messageviewer_expireaccounttrashfolderconfigplugin.so:qt_plugin_instance
messageviewer_expireaccounttrashfolderconfigplugin.so:qt_plugin_query_metadata_v2
messageviewer_externalscriptplugin.so:__bss_start
messageviewer_externalscriptplugin.so:_edata
messageviewer_externalscriptplugin.so:_end
messageviewer_externalscriptplugin.so:qt_plugin_instance
messageviewer_externalscriptplugin.so:qt_plugin_query_metadata_v2
messageviewer_fancyheaderstyleplugin.so:__bss_start
messageviewer_fancyheaderstyleplugin.so:_edata
messageviewer_fancyheaderstyleplugin.so:_end
messageviewer_fancyheaderstyleplugin.so:qt_plugin_instance
messageviewer_fancyheaderstyleplugin.so:qt_plugin_query_metadata_v2
messageviewer_folderconfiguresettingsplugin.so:__bss_start
messageviewer_folderconfiguresettingsplugin.so:_edata
messageviewer_folderconfiguresettingsplugin.so:_end
messageviewer_folderconfiguresettingsplugin.so:qt_plugin_instance
messageviewer_folderconfiguresettingsplugin.so:qt_plugin_query_metadata_v2
messageviewer_grantleeheaderstyleplugin.so:__bss_start
messageviewer_grantleeheaderstyleplugin.so:_edata
messageviewer_grantleeheaderstyleplugin.so:_end
messageviewer_grantleeheaderstyleplugin.so:qt_plugin_instance
messageviewer_grantleeheaderstyleplugin.so:qt_plugin_query_metadata_v2
messageviewer_gravatarconfigplugin.so:__bss_start
messageviewer_gravatarconfigplugin.so:_edata
messageviewer_gravatarconfigplugin.so:_end
messageviewer_gravatarconfigplugin.so:qt_plugin_instance
messageviewer_gravatarconfigplugin.so:qt_plugin_query_metadata_v2
messageviewer_longheaderstyleplugin.so:__bss_start
messageviewer_longheaderstyleplugin.so:_edata
messageviewer_longheaderstyleplugin.so:_end
messageviewer_longheaderstyleplugin.so:qt_plugin_instance
messageviewer_longheaderstyleplugin.so:qt_plugin_query_metadata_v2
messageviewer_openurlwithconfigplugin.so:__bss_start
messageviewer_openurlwithconfigplugin.so:_edata
messageviewer_openurlwithconfigplugin.so:_end
messageviewer_openurlwithconfigplugin.so:qt_plugin_instance
messageviewer_openurlwithconfigplugin.so:qt_plugin_query_metadata_v2
messageviewer_standardsheaderstyleplugin.so:__bss_start
messageviewer_standardsheaderstyleplugin.so:_edata
messageviewer_standardsheaderstyleplugin.so:_end
messageviewer_standardsheaderstyleplugin.so:qt_plugin_instance
messageviewer_standardsheaderstyleplugin.so:qt_plugin_query_metadata_v2
messageviewer_translatorplugin.so:__bss_start
messageviewer_translatorplugin.so:_edata
messageviewer_translatorplugin.so:_end
messageviewer_translatorplugin.so:qt_plugin_instance
messageviewer_translatorplugin.so:qt_plugin_query_metadata_v2
operaimporterplugin.so:__bss_start
operaimporterplugin.so:_edata
operaimporterplugin.so:_end
operaimporterplugin.so:qt_plugin_instance
operaimporterplugin.so:qt_plugin_query_metadata_v2
picoftheday.so:__bss_start
picoftheday.so:_edata
picoftheday.so:_end
picoftheday.so:qt_plugin_instance
picoftheday.so:qt_plugin_query_metadata_v2
pimcommon_isgdshorturlengineplugin.so:qt_plugin_instance
pimcommon_isgdshorturlengineplugin.so:qt_plugin_query_metadata_v2
pimcommon_tinyurlengineplugin.so:qt_plugin_instance
pimcommon_tinyurlengineplugin.so:qt_plugin_query_metadata_v2
pimcommon_translatorplugin.so:qt_plugin_instance
pimcommon_translatorplugin.so:qt_plugin_query_metadata_v2
pimcommon_triopabshorturlengineplugin.so:qt_plugin_instance
pimcommon_triopabshorturlengineplugin.so:qt_plugin_query_metadata_v2
pimevents.so:__bss_start
pimevents.so:_edata
pimevents.so:_end
pimevents.so:qt_plugin_instance
pimevents.so:qt_plugin_query_metadata_v2
templateparseraddressrequesterplugin.so:__bss_start
templateparseraddressrequesterplugin.so:_edata
templateparseraddressrequesterplugin.so:_end
templateparseraddressrequesterplugin.so:qt_plugin_instance
templateparseraddressrequesterplugin.so:qt_plugin_query_metadata_v2
thisdayinhistory.so:__bss_start
thisdayinhistory.so:_edata
thisdayinhistory.so:_end
thisdayinhistory.so:qt_plugin_instance
thisdayinhistory.so:qt_plugin_query_metadata_v2
webengineviewer_donottrackplugin.so:__bss_start
webengineviewer_donottrackplugin.so:_edata
webengineviewer_donottrackplugin.so:_end
webengineviewer_donottrackplugin.so:qt_plugin_instance
webengineviewer_donottrackplugin.so:qt_plugin_query_metadata_v2
