kdenlive:_ZGVZN9QMetaType21registerConverterImplI4QMapI7QStringS2_E9QIterableI16QMetaAssociationEEEbSt8functionIFbPKvPvEES_S_E10unregister
kdenlive:_ZGVZN9QMetaType21registerConverterImplI5QListI4QUrlE9QIterableI13QMetaSequenceEEEbSt8functionIFbPKvPvEES_S_E10unregister
kdenlive:_ZGVZN9QMetaType21registerConverterImplI5QListI6QPointE9QIterableI13QMetaSequenceEEEbSt8functionIFbPKvPvEES_S_E10unregister
kdenlive:_ZGVZN9QMetaType21registerConverterImplI5QListIdE9QIterableI13QMetaSequenceEEEbSt8functionIFbPKvPvEES_S_E10unregister
kdenlive:_ZGVZN9QMetaType21registerConverterImplI5QListIfE9QIterableI13QMetaSequenceEEEbSt8functionIFbPKvPvEES_S_E10unregister
kdenlive:_ZGVZN9QMetaType21registerConverterImplI5QListIiE9QIterableI13QMetaSequenceEEEbSt8functionIFbPKvPvEES_S_E10unregister
kdenlive:_ZGVZN9QMetaType21registerConverterImplI5QListIsE9QIterableI13QMetaSequenceEEEbSt8functionIFbPKvPvEES_S_E10unregister
kdenlive:_ZGVZN9QMetaType21registerConverterImplISt6vectorI7QStringSaIS2_EE9QIterableI13QMetaSequenceEEEbSt8functionIFbPKvPvEES_S_E10unregister
kdenlive:_ZGVZN9QMetaType21registerConverterImplISt6vectorIiSaIiEE9QIterableI13QMetaSequenceEEEbSt8functionIFbPKvPvEES_S_E10unregister
kdenlive:_ZGVZN9QMetaType23registerMutableViewImplI4QMapI7QStringS2_E9QIterableI16QMetaAssociationEEEbSt8functionIFbPvS8_EES_S_E10unregister
kdenlive:_ZGVZN9QMetaType23registerMutableViewImplI5QListI4QUrlE9QIterableI13QMetaSequenceEEEbSt8functionIFbPvS8_EES_S_E10unregister
kdenlive:_ZGVZN9QMetaType23registerMutableViewImplI5QListI6QPointE9QIterableI13QMetaSequenceEEEbSt8functionIFbPvS8_EES_S_E10unregister
kdenlive:_ZGVZN9QMetaType23registerMutableViewImplI5QListIdE9QIterableI13QMetaSequenceEEEbSt8functionIFbPvS7_EES_S_E10unregister
kdenlive:_ZGVZN9QMetaType23registerMutableViewImplI5QListIfE9QIterableI13QMetaSequenceEEEbSt8functionIFbPvS7_EES_S_E10unregister
kdenlive:_ZGVZN9QMetaType23registerMutableViewImplI5QListIiE9QIterableI13QMetaSequenceEEEbSt8functionIFbPvS7_EES_S_E10unregister
kdenlive:_ZGVZN9QMetaType23registerMutableViewImplI5QListIsE9QIterableI13QMetaSequenceEEEbSt8functionIFbPvS7_EES_S_E10unregister
kdenlive:_ZGVZN9QMetaType23registerMutableViewImplISt6vectorI7QStringSaIS2_EE9QIterableI13QMetaSequenceEEEbSt8functionIFbPvS9_EES_S_E10unregister
kdenlive:_ZGVZN9QMetaType23registerMutableViewImplISt6vectorIiSaIiEE9QIterableI13QMetaSequenceEEEbSt8functionIFbPvS8_EES_S_E10unregister
kdenlive:_ZN13QMetaSequence12MetaSequenceISt6vectorI7QStringSaIS2_EEE5valueE
kdenlive:_ZN13QMetaSequence12MetaSequenceISt6vectorIiSaIiEEE5valueE
kdenlive:_ZSt19piecewise_construct
kdenlive:_ZTISt11_Mutex_baseILN9__gnu_cxx12_Lock_policyE2EE
kdenlive:_ZTISt16_Sp_counted_baseILN9__gnu_cxx12_Lock_policyE2EE
kdenlive:_ZTSSt11_Mutex_baseILN9__gnu_cxx12_Lock_policyE2EE
kdenlive:_ZTSSt16_Sp_counted_baseILN9__gnu_cxx12_Lock_policyE2EE
kdenlive:_ZTSSt19_Sp_make_shared_tag
kdenlive:_ZZN9QMetaType21registerConverterImplI4QMapI7QStringS2_E9QIterableI16QMetaAssociationEEEbSt8functionIFbPKvPvEES_S_E10unregister
kdenlive:_ZZN9QMetaType21registerConverterImplI5QListI4QUrlE9QIterableI13QMetaSequenceEEEbSt8functionIFbPKvPvEES_S_E10unregister
kdenlive:_ZZN9QMetaType21registerConverterImplI5QListI6QPointE9QIterableI13QMetaSequenceEEEbSt8functionIFbPKvPvEES_S_E10unregister
kdenlive:_ZZN9QMetaType21registerConverterImplI5QListIdE9QIterableI13QMetaSequenceEEEbSt8functionIFbPKvPvEES_S_E10unregister
kdenlive:_ZZN9QMetaType21registerConverterImplI5QListIfE9QIterableI13QMetaSequenceEEEbSt8functionIFbPKvPvEES_S_E10unregister
kdenlive:_ZZN9QMetaType21registerConverterImplI5QListIiE9QIterableI13QMetaSequenceEEEbSt8functionIFbPKvPvEES_S_E10unregister
kdenlive:_ZZN9QMetaType21registerConverterImplI5QListIsE9QIterableI13QMetaSequenceEEEbSt8functionIFbPKvPvEES_S_E10unregister
kdenlive:_ZZN9QMetaType21registerConverterImplISt6vectorI7QStringSaIS2_EE9QIterableI13QMetaSequenceEEEbSt8functionIFbPKvPvEES_S_E10unregister
kdenlive:_ZZN9QMetaType21registerConverterImplISt6vectorIiSaIiEE9QIterableI13QMetaSequenceEEEbSt8functionIFbPKvPvEES_S_E10unregister
kdenlive:_ZZN9QMetaType23registerMutableViewImplI4QMapI7QStringS2_E9QIterableI16QMetaAssociationEEEbSt8functionIFbPvS8_EES_S_E10unregister
kdenlive:_ZZN9QMetaType23registerMutableViewImplI5QListI4QUrlE9QIterableI13QMetaSequenceEEEbSt8functionIFbPvS8_EES_S_E10unregister
kdenlive:_ZZN9QMetaType23registerMutableViewImplI5QListI6QPointE9QIterableI13QMetaSequenceEEEbSt8functionIFbPvS8_EES_S_E10unregister
kdenlive:_ZZN9QMetaType23registerMutableViewImplI5QListIdE9QIterableI13QMetaSequenceEEEbSt8functionIFbPvS7_EES_S_E10unregister
kdenlive:_ZZN9QMetaType23registerMutableViewImplI5QListIfE9QIterableI13QMetaSequenceEEEbSt8functionIFbPvS7_EES_S_E10unregister
kdenlive:_ZZN9QMetaType23registerMutableViewImplI5QListIiE9QIterableI13QMetaSequenceEEEbSt8functionIFbPvS7_EES_S_E10unregister
kdenlive:_ZZN9QMetaType23registerMutableViewImplI5QListIsE9QIterableI13QMetaSequenceEEEbSt8functionIFbPvS7_EES_S_E10unregister
kdenlive:_ZZN9QMetaType23registerMutableViewImplISt6vectorI7QStringSaIS2_EE9QIterableI13QMetaSequenceEEEbSt8functionIFbPvS9_EES_S_E10unregister
kdenlive:_ZZN9QMetaType23registerMutableViewImplISt6vectorIiSaIiEE9QIterableI13QMetaSequenceEEEbSt8functionIFbPvS8_EES_S_E10unregister
kdenlive:_ZZNSt19_Sp_make_shared_tag5_S_tiEvE5__tag
mltpreview.so:_ZTISt11_Mutex_baseILN9__gnu_cxx12_Lock_policyE2EE
mltpreview.so:_ZTISt16_Sp_counted_baseILN9__gnu_cxx12_Lock_policyE2EE
mltpreview.so:_ZTSSt11_Mutex_baseILN9__gnu_cxx12_Lock_policyE2EE
mltpreview.so:_ZTSSt15_Sp_counted_ptrIPN3Mlt5FrameELN9__gnu_cxx12_Lock_policyE2EE
mltpreview.so:_ZTSSt15_Sp_counted_ptrIPN3Mlt8ProducerELN9__gnu_cxx12_Lock_policyE2EE
mltpreview.so:_ZTSSt16_Sp_counted_baseILN9__gnu_cxx12_Lock_policyE2EE
mltpreview.so:qt_plugin_instance
mltpreview.so:qt_plugin_query_metadata_v2
